
.\rom_0x08003000.elf:     file format elf32-littlearm
.\rom_0x08003000.elf
architecture: arm, flags 0x00000112:
EXEC_P, HAS_SYMS, D_PAGED
start address 0x08003000

Program Header:
0x70000001 off    0x0000a038 vaddr 0x0800a038 paddr 0x0800a038 align 2**2
         filesz 0x00000008 memsz 0x00000008 flags r--
    LOAD off    0x00000000 vaddr 0x08000000 paddr 0x08000000 align 2**15
         filesz 0x0000a300 memsz 0x0000a300 flags r-x
    LOAD off    0x00010000 vaddr 0x20000000 paddr 0x0800a300 align 2**15
         filesz 0x00000580 memsz 0x000005d8 flags rw-
private flags = 5000202: [Version5 EABI] [soft-float ABI] [has entry point]

Sections:
Idx Name          Size      VMA       LMA       File off  Algn
  0 .text         00007038  08003000  08003000  00003000  2**3
                  CONTENTS, ALLOC, LOAD, READONLY, CODE
  1 .ARM.exidx    00000008  0800a038  0800a038  0000a038  2**2
                  CONTENTS, ALLOC, LOAD, READONLY, DATA
  2 .rodata       000002c0  0800a040  0800a040  0000a040  2**3
                  CONTENTS, ALLOC, LOAD, READONLY, DATA
  3 .data         00000580  20000000  0800a300  00010000  2**2
                  CONTENTS, ALLOC, LOAD, DATA
  4 .bss          00000058  20000580  0800a880  00010580  2**2
                  ALLOC
  5 .debug_info   000025bf  00000000  00000000  00010580  2**0
                  CONTENTS, READONLY, DEBUGGING
  6 .debug_abbrev 00000d13  00000000  00000000  00012b3f  2**0
                  CONTENTS, READONLY, DEBUGGING
  7 .debug_aranges 00000180  00000000  00000000  00013858  2**3
                  CONTENTS, READONLY, DEBUGGING
  8 .debug_line   000009e3  00000000  00000000  000139d8  2**0
                  CONTENTS, READONLY, DEBUGGING
  9 .debug_str    00000858  00000000  00000000  000143bb  2**0
                  CONTENTS, READONLY, DEBUGGING
 10 .comment      00000030  00000000  00000000  00014c13  2**0
                  CONTENTS, READONLY
 11 .ARM.attributes 00000031  00000000  00000000  00014c43  2**0
                  CONTENTS, READONLY
 12 .debug_frame  00000d70  00000000  00000000  00014c74  2**2
                  CONTENTS, READONLY, DEBUGGING
 13 .debug_loc    0000099f  00000000  00000000  000159e4  2**0
                  CONTENTS, READONLY, DEBUGGING
 14 .debug_ranges 000000e0  00000000  00000000  00016383  2**0
                  CONTENTS, READONLY, DEBUGGING
SYMBOL TABLE:
08003000 l    d  .text	00000000 .text
0800a038 l    d  .ARM.exidx	00000000 .ARM.exidx
0800a040 l    d  .rodata	00000000 .rodata
20000000 l    d  .data	00000000 .data
20000580 l    d  .bss	00000000 .bss
00000000 l    d  .debug_info	00000000 .debug_info
00000000 l    d  .debug_abbrev	00000000 .debug_abbrev
00000000 l    d  .debug_aranges	00000000 .debug_aranges
00000000 l    d  .debug_line	00000000 .debug_line
00000000 l    d  .debug_str	00000000 .debug_str
00000000 l    d  .comment	00000000 .comment
00000000 l    d  .ARM.attributes	00000000 .ARM.attributes
00000000 l    d  .debug_frame	00000000 .debug_frame
00000000 l    d  .debug_loc	00000000 .debug_loc
00000000 l    d  .debug_ranges	00000000 .debug_ranges
00000000 l    df *ABS*	00000000 crt0.o
00000000 l    df *ABS*	00000000 adc.c
00000000 l    df *ABS*	00000000 clock.c
00000000 l    df *ABS*	00000000 core_cm3.c
00000000 l    df *ABS*	00000000 key.c
00000000 l    df *ABS*	00000000 led.c
00000000 l    df *ABS*	00000000 main.c
00000000 l    df *ABS*	00000000 moter.c
20000580 l       .bss	00000000 .LANCHOR0
00000000 l    df *ABS*	00000000 runtime.c
20000590 l       .bss	00000000 .LANCHOR0
20000590 l     O .bss	00000004 heap.4815
00000000 l    df *ABS*	00000000 systick.c
00000000 l    df *ABS*	00000000 timer.c
00000000 l    df *ABS*	00000000 uart.c
00000000 l    df *ABS*	00000000 vsprintf.c
00000000 l    df *ABS*	00000000 impure.c
20000004 l     O .data	000000f0 impure_data
00000000 l    df *ABS*	00000000 vfprintf.c
0800a044 l       .rodata	00000000 .LANCHOR0
0800a044 l     O .rodata	00000010 blanks.6752
0800a054 l     O .rodata	00000010 zeroes.6753
00000000 l    df *ABS*	00000000 dtoa.c
08005448 l     F .text	0000014a quorem
00000000 l    df *ABS*	00000000 locale.c
200000f4 l       .data	00000000 .LANCHOR0
200000f4 l     O .data	00000020 lc_ctype_charset
20000118 l     O .data	00000020 lc_message_charset
20000138 l     O .data	00000038 lconv
00000000 l    df *ABS*	00000000 malloc.c
00000000 l    df *ABS*	00000000 mallocr.c
20000170 l       .data	00000000 .LANCHOR0
200005a0 l       .bss	00000000 .LANCHOR1
00000000 l    df *ABS*	00000000 memchr-stub.c
00000000 l    df *ABS*	00000000 memcpy-stub.c
00000000 l    df *ABS*	00000000 mlock.c
00000000 l    df *ABS*	00000000 mprec.c
0800a068 l       .rodata	00000000 .LANCHOR0
0800a068 l     O .rodata	0000000c p05.5301
00000000 l    df *ABS*	00000000 s_fpclassify.c
00000000 l    df *ABS*	00000000 sbrkr.c
00000000 l    df *ABS*	00000000 lib_a-strcmp.o
00000000 l    df *ABS*	00000000 strlen.c
00000000 l    df *ABS*	00000000 vfprintf.c
0800a190 l       .rodata	00000000 .LANCHOR0
0800a190 l     O .rodata	00000010 blanks.6696
0800a1a0 l     O .rodata	00000010 zeroes.6697
00000000 l    df *ABS*	00000000 mallocr.c
00000000 l    df *ABS*	00000000 mallocr.c
00000000 l    df *ABS*	00000000 memmove.c
00000000 l    df *ABS*	00000000 memset.c
00000000 l    df *ABS*	00000000 mallocr.c
00000000 l    df *ABS*	00000000 reent.c
00000000 l    df *ABS*	00000000 _udivsi3.o
08008da8 l       .text	00000000 .udivsi3_skip_div0_test
00000000 l       *ABS*	00000000 shift
00000000 l    df *ABS*	00000000 _dvmd_tls.o
00000000 l    df *ABS*	00000000 _arm_addsubdf3.o
00000000 l    df *ABS*	00000000 _arm_muldivdf3.o
00000000 l    df *ABS*	00000000 _arm_cmpdf2.o
00000000 l    df *ABS*	00000000 _arm_fixdfsi.o
00000000 l    df *ABS*	00000000 _arm_fixunsdfsi.o
00000000 l    df *ABS*	00000000 _aeabi_uldivmod.o
00000000 l    df *ABS*	00000000 bpabi.c
00000000 l    df *ABS*	00000000 libgcc2.c
00000000 l    df *ABS*	00000000 libgcc2.c
00000000 l    df *ABS*	00000000 
080031b0 g     F .text	00000006 __set_PRIMASK
080074e8 g     F .text	00000034 _mprec_log10
08007564 g     F .text	0000005e __any_on
0800a140 g     O .rodata	00000028 __mprec_tinytens
0800988c g     F .text	00000012 .hidden __aeabi_dcmple
08008cb4 g     F .text	0000001a cleanup_glue
080099b4 g     F .text	00000030 .hidden __gnu_uldivmod_helper
0800321c g     F .text	00000026 Key_Poll_Init
080097c8 g     F .text	0000007a .hidden __cmpdf2
080097c8 g     F .text	0000007a .hidden __eqdf2
080099e4 g     F .text	00000352 .hidden __divdi3
080030d0 g     F .text	0000001a Adc_Cds_Stop
08009338 g     F .text	0000005a .hidden __floatdidf
08003f74 g     F .text	0000001a vsprintf
080034d0 g     F .text	00000030 Moter_Left
08006520 g     F .text	00000052 _setlocale_r
08006c88 g     F .text	00000002 __malloc_unlock
080031b8 g     F .text	00000006 __get_FAULTMASK
080031d8 g     F .text	00000004 __REV
08008758 g     F .text	000000ce memmove
20000580 g     O .bss	00000004 freq_state
08006c8c g     F .text	0000006c _Balloc
080097b8 g     F .text	0000008a .hidden __gtdf2
08003214 g     F .text	00000006 __STREXW
080031fc g     F .text	00000006 __LDREXW
200005d4 g     O .bss	00000004 errno
08009854 g     F .text	00000010 .hidden __aeabi_cdcmple
08003aac g     F .text	0000000c SysTick_Get_Load_Time
08003344 g     F .text	0000004a Main
08003ac8 g     F .text	0000003e TIM2_Stopwatch_Start
08006bdc g     F .text	000000a6 memcpy
08009844 g     F .text	00000020 .hidden __aeabi_cdrcmple
08003300 g     F .text	0000001c LED_Display
08003f90 g     F .text	000014b4 _svfprintf_r
080092c8 g     F .text	00000022 .hidden __floatsidf
080097c0 g     F .text	00000082 .hidden __ltdf2
08003330 g     F .text	00000012 LED_All_Off
08009958 g     F .text	00000000 .hidden __aeabi_uldivmod
080075c4 g     F .text	00000050 __fpclassifyd
08007488 g     F .text	0000005e __ratio
080038e8 g     F .text	00000080 Cds_Mode
080031e4 g     F .text	00000006 __RBIT
08003390 g     F .text	000000aa Tim2_Pwm_Init
20000000 g       .data	00000000 __RW_BASE__
080065bc g     F .text	00000010 malloc
08008da8 g     F .text	0000025c .hidden __udivsi3
0800a078 g     O .rodata	000000c8 __mprec_tens
080031c0 g     F .text	00000006 __set_FAULTMASK
08006574 g     F .text	0000000a __locale_charset
08009918 g     F .text	00000040 .hidden __fixunsdfsi
200005a0 g     O .bss	00000004 __malloc_top_pad
20000114 g     O .data	00000004 __mb_cur_max
080092a8 g     F .text	0000001e .hidden __aeabi_ui2d
08006598 g     F .text	00000008 _localeconv_r
08006ee8 g     F .text	00000012 __i2b
08009024 g     F .text	00000000 .hidden __aeabi_drsub
08007614 g     F .text	00000026 _sbrk_r
080032d0 g     F .text	0000002e LED_Init
20000584 g     O .bss	00000004 k
08003d54 g     F .text	00000022 TIM3_Out_Stop
08009878 g     F .text	00000012 .hidden __aeabi_dcmplt
08003120 g     F .text	00000058 Clock_Init
200005cc g     O .bss	00000004 __malloc_max_sbrked_mem
080092ec g     F .text	0000003a .hidden __extendsfdf2
080095e8 g     F .text	000001d0 .hidden __aeabi_ddiv
08009030 g     F .text	00000276 .hidden __adddf3
20000580 g       .data	00000000 __RW_LIMIT__
08003eb0 g     F .text	00000060 Uart1_Printf
08007320 g     F .text	000000ac __b2d
08009394 g     F .text	00000254 .hidden __aeabi_dmul
080031c8 g     F .text	00000006 __get_CONTROL
08003110 g     F .text	00000010 Adc_Get_Data
0800a040 g     O .rodata	00000004 _global_impure_ptr
080088c8 g     F .text	000003ea _realloc_r
08009d38 g     F .text	00000300 .hidden __udivdi3
0800a168 g     O .rodata	00000028 __mprec_bigtens
08006dbc g     F .text	00000098 __s2b
080092a8 g     F .text	0000001e .hidden __floatunsidf
08003a00 g     F .text	00000044 _sbrk
080071ac g     F .text	00000042 __mcmp
08003f10 g     F .text	00000016 Uart1_Get_Pressed
08003178 g     F .text	00000008 __get_PSP
08003180 g     F .text	00000006 __set_PSP
08008cd0 g     F .text	000000d6 _reclaim_reent
08006e54 g     F .text	0000003c __hi0bits
080098c8 g     F .text	0000004e .hidden __fixdfsi
08003cbc g     F .text	00000018 TIM4_Change_Value
08003b08 g     F .text	00000026 TIM2_Stopwatch_Stop
08009030 g     F .text	00000276 .hidden __aeabi_dadd
080097c0 g     F .text	00000082 .hidden __ledf2
0800703c g     F .text	000000b8 __pow5mult
08009328 g     F .text	0000006a .hidden __aeabi_ul2d
2000059c g     O .bss	00000004 __nlocale_changed
00000000  w      *UND*	00000000 __sf_fake_stderr
08003008 g     F .text	00000000 __start
080031ec g     F .text	00000008 __LDREXB
20000588 g     O .bss	00000004 i
080098b4 g     F .text	00000012 .hidden __aeabi_dcmpgt
08006b4c g     F .text	00000090 memchr
080030ec g     F .text	00000022 Adc_Cds_Get_Status
080085c0 g     F .text	00000198 _free_r
08006580 g     F .text	0000000c __locale_mb_cur_max
080098a0 g     F .text	00000012 .hidden __aeabi_dcmpge
080031a8 g     F .text	00000006 __get_PRIMASK
20000598 g     O .bss	00000004 __mlocale_changed
0800902c g     F .text	0000027a .hidden __aeabi_dsub
08003c78 g     F .text	00000020 TIM4_Check_Timeout
20000578 g     O .data	00000004 __malloc_sbrk_base
00000580 g       *ABS*	00000000 __RW_SIZE__
08009328 g     F .text	0000006a .hidden __floatundidf
080070f4 g     F .text	000000b6 __lshift
080078d8 g     F .text	00000104 __ssprint_r
0800a300 g       *ABS*	00000000 __RW_LOAD_ADDR__
08003a48 g     F .text	00000048 SysTick_Run
080031e0 g     F .text	00000004 __REVSH
08006efc g     F .text	00000140 __multiply
200005a4 g     O .bss	00000028 __malloc_current_mallinfo
080073cc g     F .text	000000ba __d2b
08003270 g     F .text	0000002e Key_Wait_Key_Released
080092c8 g     F .text	00000022 .hidden __aeabi_i2d
0800a040 g       .rodata	00000000 __RO_BASE__
08009020  w    F .text	00000002 .hidden __aeabi_ldiv0
080095e8 g     F .text	000001d0 .hidden __divdf3
0800751c g     F .text	00000046 __copybits
20000170 g     O .data	00000408 __malloc_av_
08009394 g     F .text	00000254 .hidden __muldf3
08006c84 g     F .text	00000002 __malloc_lock
080084b8 g     F .text	00000062 _calloc_r
08003b30 g     F .text	000000e4 TIM2_Delay
080030b4 g     F .text	0000001a Adc_Cds_Start
00000000  w      *UND*	00000000 __sf_fake_stdin
080034a0 g     F .text	00000030 Moter_Right
08008828 g     F .text	0000009e memset
200005d0 g     O .bss	00000004 __malloc_max_total_mem
2000058c g     O .bss	00000004 modeState
08003048 g     F .text	0000006a Adc_Cds_Init
200005d4 g       .bss	00000000 __ZI_LIMIT__
08008da8 g     F .text	00000000 .hidden __aeabi_uidiv
080031d0 g     F .text	00000006 __set_CONTROL
08005594 g     F .text	00000f8a _dtoa_r
080065dc g     F .text	0000056e _malloc_r
08009338 g     F .text	0000005a .hidden __aeabi_l2d
08003e6c g     F .text	00000042 Uart1_Send_String
08003e30 g     F .text	0000003a Uart1_Send_Byte
08003244 g     F .text	0000002a Key_Get_Pressed
08003538 g     F .text	00000230 Moter_Run
08003cd4 g     F .text	0000004c TIM3_Out_Init
0800331c g     F .text	00000012 LED_All_On
0800851c g     F .text	000000a2 _malloc_trim_r
0800763c g     F .text	00000000 strcmp
08003188 g     F .text	00000008 __get_MSP
0800a300 g       .rodata	00000000 __RO_LIMIT__
080097c8 g     F .text	0000007a .hidden __nedf2
20000594 g     O .bss	00000004 _PathLocale
08003f40 g     F .text	00000032 _vsprintf_r
08003768 g     F .text	00000180 Moter_Mode
080065a0 g     F .text	00000012 setlocale
080031dc g     F .text	00000004 __REV16
20000000 g     O .data	00000004 _impure_ptr
08006594 g     F .text	00000004 __locale_cjk_lang
080079dc g     F .text	00000adc _svfiprintf_r
00000058 g       *ABS*	00000000 __ZI_SIZE__
08003190 g     F .text	00000006 __set_MSP
080072dc g     F .text	00000042 __ulp
08003ab8 g     F .text	0000000e SysTick_Stop
08009918 g     F .text	00000040 .hidden __aeabi_d2uiz
20000580 g       .bss	00000000 __ZI_BASE__
080065b4 g     F .text	00000008 localeconv
08009004 g     F .text	0000001a .hidden __aeabi_uidivmod
080031a0 g     F .text	00000006 __set_BASEPRI
08009864 g     F .text	00000012 .hidden __aeabi_dcmpeq
08003c98 g     F .text	00000022 TIM4_Stop
080032a0 g     F .text	0000002e Key_Wait_Key_Pressed
08003d78 g     F .text	000000b8 Uart1_Init
2000057c g     O .data	00000004 __malloc_trim_threshold
0800658c g     F .text	00000008 __locale_msgcharset
0800320c g     F .text	00000008 __STREXH
080071f0 g     F .text	000000ea __mdiff
080098c8 g     F .text	0000004e .hidden __aeabi_d2iz
080031f4 g     F .text	00000008 __LDREXH
00000000  w      *UND*	00000000 __sf_fake_stdout
08009020  w    F .text	00000002 .hidden __aeabi_idiv0
08003968 g     F .text	00000098 Auto_Mode
0800343c g     F .text	00000064 Tim2_Freq_Generation
08003aa0 g     F .text	0000000c SysTick_Get_Time
08007878 g     F .text	0000005e strlen
08003198 g     F .text	00000006 __get_BASEPRI
08009854 g     F .text	00000010 .hidden __aeabi_cdcmpeq
080097b8 g     F .text	0000008a .hidden __gedf2
08003f28 g     F .text	00000018 Uart1_Get_Char
08003c14 g     F .text	00000062 TIM4_Repeat
08009984 g     F .text	00000030 .hidden __gnu_ldivmod_helper
08003d20 g     F .text	00000034 TIM3_Out_Freq_Generation
080092ec g     F .text	0000003a .hidden __aeabi_f2d
08003204 g     F .text	00000008 __STREXB
0800902c g     F .text	0000027a .hidden __subdf3
08006e90 g     F .text	00000056 __lo0bits
08003500 g     F .text	00000036 Moter_Stop
08003a90 g     F .text	00000010 SysTick_Check_Timeout
080065cc g     F .text	00000010 free
08006d30 g     F .text	0000008c __multadd
08006cf8 g     F .text	00000036 _Bfree



Disassembly of section .text:

08003000 <__start-0x8>:
 8003000:	20005000 	andcs	r5, r0, r0
 8003004:	08003009 	stmdaeq	r0, {r0, r3, ip, sp}

08003008 <__start>:
	.extern __RO_LIMIT__
	.extern __RW_BASE__
	.extern __ZI_BASE__
	.extern __ZI_LIMIT__

	ldr		r0, =__RO_LIMIT__
 8003008:	480b      	ldr	r0, [pc, #44]	; (8003038 <__start+0x30>)
	ldr		r1, =__RW_BASE__
 800300a:	490c      	ldr	r1, [pc, #48]	; (800303c <__start+0x34>)
	ldr		r3, =__ZI_BASE__
 800300c:	4b0c      	ldr	r3, [pc, #48]	; (8003040 <__start+0x38>)

	cmp		r0, r1
 800300e:	4288      	cmp	r0, r1
	beq		2f
 8003010:	d006      	beq.n	8003020 <__start+0x18>

1:
	cmp		r1, r3
 8003012:	4299      	cmp	r1, r3
	ittt	lo
 8003014:	bf3e      	ittt	cc
	ldrlo	r2, [r0], #4
 8003016:	f850 2b04 	ldrcc.w	r2, [r0], #4
	strlo	r2, [r1], #4
 800301a:	f841 2b04 	strcc.w	r2, [r1], #4
	blo		1b
 800301e:	e7f8      	bcc.n	8003012 <__start+0xa>

2:
	ldr		r1, =__ZI_LIMIT__
 8003020:	4908      	ldr	r1, [pc, #32]	; (8003044 <__start+0x3c>)
	mov		r2, #0x0
 8003022:	f04f 0200 	mov.w	r2, #0
3:
	cmp		r3, r1
 8003026:	428b      	cmp	r3, r1
	itt		lo
 8003028:	bf3c      	itt	cc
	strlo	r2, [r3], #4
 800302a:	f843 2b04 	strcc.w	r2, [r3], #4
	blo		3b
 800302e:	e7fa      	bcc.n	8003026 <__start+0x1e>

	.extern Main

	bl		Main
 8003030:	f000 f988 	bl	8003344 <Main>

	b		.
 8003034:	e7fe      	b.n	8003034 <__start+0x2c>
 8003036:	a3000000 	movwge	r0, #0
	.extern __RO_LIMIT__
	.extern __RW_BASE__
	.extern __ZI_BASE__
	.extern __ZI_LIMIT__

	ldr		r0, =__RO_LIMIT__
 800303a:	00000800 	andeq	r0, r0, r0, lsl #16
	ldr		r1, =__RW_BASE__
 800303e:	05802000 	streq	r2, [r0]
	ldr		r3, =__ZI_BASE__
 8003042:	05d42000 	ldrbeq	r2, [r4]
	ldrlo	r2, [r0], #4
	strlo	r2, [r1], #4
	blo		1b

2:
	ldr		r1, =__ZI_LIMIT__
 8003046:	f44f2000 	vst4.8	{d18-d21}, [pc], r0

08003048 <Adc_Cds_Init>:
#include "device_driver.h"

void Adc_Cds_Init(void)
{
	Macro_Set_Bit(RCC->APB2ENR, 3); 				// PB POWER ON
 8003048:	f44f 5280 	mov.w	r2, #4096	; 0x1000
 800304c:	f2c4 0202 	movt	r2, #16386	; 0x4002
 8003050:	6993      	ldr	r3, [r2, #24]
	Macro_Write_Block(GPIOB->CRL, 0xf, 0x0, 4); 	// PB1(ADC-IN9) = Analog Input
 8003052:	f44f 6140 	mov.w	r1, #3072	; 0xc00
#include "device_driver.h"

void Adc_Cds_Init(void)
{
	Macro_Set_Bit(RCC->APB2ENR, 3); 				// PB POWER ON
 8003056:	f043 0308 	orr.w	r3, r3, #8
 800305a:	6193      	str	r3, [r2, #24]
	Macro_Write_Block(GPIOB->CRL, 0xf, 0x0, 4); 	// PB1(ADC-IN9) = Analog Input
 800305c:	f2c4 0101 	movt	r1, #16385	; 0x4001
 8003060:	6808      	ldr	r0, [r1, #0]

	Macro_Set_Bit(RCC->APB2ENR, 9); 				// ADC1 POWER ON
	Macro_Write_Block(RCC->CFGR, 0x3, 0x2, 14); 	// ADC1 CLOCK = 12MHz(PCLK2/6)

	Macro_Write_Block(ADC1->SMPR2, 0x7, 0x7, 27); 	// Clock Configuration of CH5 = 239.5 Cycles
 8003062:	f44f 5310 	mov.w	r3, #9216	; 0x2400
#include "device_driver.h"

void Adc_Cds_Init(void)
{
	Macro_Set_Bit(RCC->APB2ENR, 3); 				// PB POWER ON
	Macro_Write_Block(GPIOB->CRL, 0xf, 0x0, 4); 	// PB1(ADC-IN9) = Analog Input
 8003066:	f020 00f0 	bic.w	r0, r0, #240	; 0xf0
 800306a:	6008      	str	r0, [r1, #0]

	Macro_Set_Bit(RCC->APB2ENR, 9); 				// ADC1 POWER ON
 800306c:	6991      	ldr	r1, [r2, #24]
	Macro_Write_Block(RCC->CFGR, 0x3, 0x2, 14); 	// ADC1 CLOCK = 12MHz(PCLK2/6)

	Macro_Write_Block(ADC1->SMPR2, 0x7, 0x7, 27); 	// Clock Configuration of CH5 = 239.5 Cycles
 800306e:	f2c4 0301 	movt	r3, #16385	; 0x4001
void Adc_Cds_Init(void)
{
	Macro_Set_Bit(RCC->APB2ENR, 3); 				// PB POWER ON
	Macro_Write_Block(GPIOB->CRL, 0xf, 0x0, 4); 	// PB1(ADC-IN9) = Analog Input

	Macro_Set_Bit(RCC->APB2ENR, 9); 				// ADC1 POWER ON
 8003072:	f441 7100 	orr.w	r1, r1, #512	; 0x200
 8003076:	6191      	str	r1, [r2, #24]
	Macro_Write_Block(RCC->CFGR, 0x3, 0x2, 14); 	// ADC1 CLOCK = 12MHz(PCLK2/6)
 8003078:	6851      	ldr	r1, [r2, #4]
 800307a:	f421 4140 	bic.w	r1, r1, #49152	; 0xc000
 800307e:	f441 4100 	orr.w	r1, r1, #32768	; 0x8000
 8003082:	6051      	str	r1, [r2, #4]

	Macro_Write_Block(ADC1->SMPR2, 0x7, 0x7, 27); 	// Clock Configuration of CH5 = 239.5 Cycles
 8003084:	691a      	ldr	r2, [r3, #16]
 8003086:	f042 5260 	orr.w	r2, r2, #939524096	; 0x38000000
 800308a:	611a      	str	r2, [r3, #16]
	Macro_Write_Block(ADC1->SQR1, 0xF, 0x0, 20); 	// Conversion Sequence No = 1
 800308c:	6ada      	ldr	r2, [r3, #44]	; 0x2c
 800308e:	f422 0270 	bic.w	r2, r2, #15728640	; 0xf00000
 8003092:	62da      	str	r2, [r3, #44]	; 0x2c
	Macro_Write_Block(ADC1->SQR3, 0x1F, 9, 0); 		// Sequence Channel of No 1 = CH9
 8003094:	6b5a      	ldr	r2, [r3, #52]	; 0x34
 8003096:	f022 021f 	bic.w	r2, r2, #31
 800309a:	f042 0209 	orr.w	r2, r2, #9
 800309e:	635a      	str	r2, [r3, #52]	; 0x34
	Macro_Write_Block(ADC1->CR2, 0x7, 0x7, 17); 	// EXT Trigger = SW Trigger
 80030a0:	689a      	ldr	r2, [r3, #8]
 80030a2:	f442 2260 	orr.w	r2, r2, #917504	; 0xe0000
 80030a6:	609a      	str	r2, [r3, #8]
	Macro_Set_Bit(ADC1->CR2, 0); 					// ADC ON
 80030a8:	689a      	ldr	r2, [r3, #8]
 80030aa:	f042 0201 	orr.w	r2, r2, #1
 80030ae:	609a      	str	r2, [r3, #8]
 80030b0:	4770      	bx	lr
 80030b2:	bf00      	nop

080030b4 <Adc_Cds_Start>:
}

void Adc_Cds_Start(void)
{
	Macro_Set_Bit(ADC1->CR2, 20);
 80030b4:	f44f 5310 	mov.w	r3, #9216	; 0x2400
 80030b8:	f2c4 0301 	movt	r3, #16385	; 0x4001
 80030bc:	689a      	ldr	r2, [r3, #8]
 80030be:	f442 1280 	orr.w	r2, r2, #1048576	; 0x100000
 80030c2:	609a      	str	r2, [r3, #8]
	Macro_Set_Bit(ADC1->CR2, 22);
 80030c4:	689a      	ldr	r2, [r3, #8]
 80030c6:	f442 0280 	orr.w	r2, r2, #4194304	; 0x400000
 80030ca:	609a      	str	r2, [r3, #8]
 80030cc:	4770      	bx	lr
 80030ce:	bf00      	nop

080030d0 <Adc_Cds_Stop>:
}

void Adc_Cds_Stop(void)
{
	Macro_Clear_Bit(ADC1->CR2, 22);
 80030d0:	f44f 5310 	mov.w	r3, #9216	; 0x2400
 80030d4:	f2c4 0301 	movt	r3, #16385	; 0x4001
 80030d8:	689a      	ldr	r2, [r3, #8]
 80030da:	f422 0280 	bic.w	r2, r2, #4194304	; 0x400000
 80030de:	609a      	str	r2, [r3, #8]
	Macro_Clear_Bit(ADC1->CR2, 0);
 80030e0:	689a      	ldr	r2, [r3, #8]
 80030e2:	f022 0201 	bic.w	r2, r2, #1
 80030e6:	609a      	str	r2, [r3, #8]
 80030e8:	4770      	bx	lr
 80030ea:	bf00      	nop

080030ec <Adc_Cds_Get_Status>:

}

int Adc_Cds_Get_Status(void)
{
	int r = Macro_Check_Bit_Set(ADC1->SR,1);
 80030ec:	f44f 5310 	mov.w	r3, #9216	; 0x2400
 80030f0:	f2c4 0301 	movt	r3, #16385	; 0x4001
 80030f4:	6818      	ldr	r0, [r3, #0]
 80030f6:	f3c0 0040 	ubfx	r0, r0, #1, #1

	if(r)
 80030fa:	b138      	cbz	r0, 800310c <Adc_Cds_Get_Status+0x20>
	{
		Macro_Clear_Bit(ADC1->SR,1);
 80030fc:	681a      	ldr	r2, [r3, #0]
 80030fe:	f022 0202 	bic.w	r2, r2, #2
 8003102:	601a      	str	r2, [r3, #0]
		Macro_Clear_Bit(ADC1->SR, 4);
 8003104:	681a      	ldr	r2, [r3, #0]
 8003106:	f022 0210 	bic.w	r2, r2, #16
 800310a:	601a      	str	r2, [r3, #0]

	}
	return r;
}
 800310c:	4770      	bx	lr
 800310e:	bf00      	nop

08003110 <Adc_Get_Data>:

int Adc_Get_Data(void)
{
	return Macro_Extract_Area(ADC1->DR, 0xFFF, 0);
 8003110:	f44f 5310 	mov.w	r3, #9216	; 0x2400
 8003114:	f2c4 0301 	movt	r3, #16385	; 0x4001
 8003118:	6cd8      	ldr	r0, [r3, #76]	; 0x4c
}
 800311a:	f3c0 000b 	ubfx	r0, r0, #0, #12
 800311e:	4770      	bx	lr

08003120 <Clock_Init>:
#include "device_driver.h"

void Clock_Init(void)
{
	RCC->CR = 0x1;
 8003120:	f44f 5380 	mov.w	r3, #4096	; 0x1000
 8003124:	f2c4 0302 	movt	r3, #16386	; 0x4002
 8003128:	2201      	movs	r2, #1
 800312a:	601a      	str	r2, [r3, #0]
	Macro_Set_Bit(RCC->CR, 16);
 800312c:	6819      	ldr	r1, [r3, #0]
	RCC->CFGR = ((9-2)<<18)|(0<<17)|(1<<16)|(0<<11)|(4<<8)|(0<<4)|(0<<0);
 800312e:	f44f 6280 	mov.w	r2, #1024	; 0x400
#include "device_driver.h"

void Clock_Init(void)
{
	RCC->CR = 0x1;
	Macro_Set_Bit(RCC->CR, 16);
 8003132:	f441 3180 	orr.w	r1, r1, #65536	; 0x10000
	RCC->CFGR = ((9-2)<<18)|(0<<17)|(1<<16)|(0<<11)|(4<<8)|(0<<4)|(0<<0);
 8003136:	f2c0 021d 	movt	r2, #29
#include "device_driver.h"

void Clock_Init(void)
{
	RCC->CR = 0x1;
	Macro_Set_Bit(RCC->CR, 16);
 800313a:	6019      	str	r1, [r3, #0]
	RCC->CFGR = ((9-2)<<18)|(0<<17)|(1<<16)|(0<<11)|(4<<8)|(0<<4)|(0<<0);
 800313c:	605a      	str	r2, [r3, #4]
	Macro_Set_Bit(RCC->CR, 24);
 800313e:	681a      	ldr	r2, [r3, #0]
	while(!Macro_Check_Bit_Set(RCC->CR, 25));
 8003140:	4619      	mov	r1, r3
void Clock_Init(void)
{
	RCC->CR = 0x1;
	Macro_Set_Bit(RCC->CR, 16);
	RCC->CFGR = ((9-2)<<18)|(0<<17)|(1<<16)|(0<<11)|(4<<8)|(0<<4)|(0<<0);
	Macro_Set_Bit(RCC->CR, 24);
 8003142:	f042 7280 	orr.w	r2, r2, #16777216	; 0x1000000
 8003146:	601a      	str	r2, [r3, #0]
	while(!Macro_Check_Bit_Set(RCC->CR, 25));
 8003148:	680a      	ldr	r2, [r1, #0]
 800314a:	f44f 5380 	mov.w	r3, #4096	; 0x1000
 800314e:	0192      	lsls	r2, r2, #6
 8003150:	f2c4 0302 	movt	r3, #16386	; 0x4002
 8003154:	d5f8      	bpl.n	8003148 <Clock_Init+0x28>
    Macro_Write_Block(FLASH->ACR, 0x3, 0x2, 0);
 8003156:	f44f 5200 	mov.w	r2, #8192	; 0x2000
 800315a:	f2c4 0202 	movt	r2, #16386	; 0x4002
 800315e:	6811      	ldr	r1, [r2, #0]
 8003160:	f021 0103 	bic.w	r1, r1, #3
 8003164:	f041 0102 	orr.w	r1, r1, #2
 8003168:	6011      	str	r1, [r2, #0]
	Macro_Write_Block(RCC->CFGR, 0x3, 0x2, 0);
 800316a:	685a      	ldr	r2, [r3, #4]
 800316c:	f022 0203 	bic.w	r2, r2, #3
 8003170:	f042 0202 	orr.w	r2, r2, #2
 8003174:	605a      	str	r2, [r3, #4]
 8003176:	4770      	bx	lr

08003178 <__get_PSP>:
uint32_t __get_PSP(void) __attribute__( ( naked ) );
uint32_t __get_PSP(void)
{
  uint32_t result=0;

  __ASM volatile ("MRS %0, psp\n\t" 
 8003178:	f3ef 8009 	mrs	r0, PSP
 800317c:	4600      	mov	r0, r0
 800317e:	4770      	bx	lr

08003180 <__set_PSP>:
 * (process stack pointer) Cortex processor register
 */
void __set_PSP(uint32_t topOfProcStack) __attribute__( ( naked ) );
void __set_PSP(uint32_t topOfProcStack)
{
  __ASM volatile ("MSR psp, %0\n\t"
 8003180:	f380 8809 	msr	PSP, r0
 8003184:	4770      	bx	lr
 8003186:	bf00      	nop

08003188 <__get_MSP>:
uint32_t __get_MSP(void) __attribute__( ( naked ) );
uint32_t __get_MSP(void)
{
  uint32_t result=0;

  __ASM volatile ("MRS %0, msp\n\t" 
 8003188:	f3ef 8008 	mrs	r0, MSP
 800318c:	4600      	mov	r0, r0
 800318e:	4770      	bx	lr

08003190 <__set_MSP>:
 * (main stack pointer) Cortex processor register
 */
void __set_MSP(uint32_t topOfMainStack) __attribute__( ( naked ) );
void __set_MSP(uint32_t topOfMainStack)
{
  __ASM volatile ("MSR msp, %0\n\t"
 8003190:	f380 8808 	msr	MSP, r0
 8003194:	4770      	bx	lr
 8003196:	bf00      	nop

08003198 <__get_BASEPRI>:
 */
uint32_t __get_BASEPRI(void)
{
  uint32_t result=0;
  
  __ASM volatile ("MRS %0, basepri_max" : "=r" (result) );
 8003198:	f3ef 8012 	mrs	r0, BASEPRI_MAX
  return(result);
}
 800319c:	4770      	bx	lr
 800319e:	bf00      	nop

080031a0 <__set_BASEPRI>:
 *
 * Set the base priority register
 */
void __set_BASEPRI(uint32_t value)
{
  __ASM volatile ("MSR basepri, %0" : : "r" (value) );
 80031a0:	f380 8811 	msr	BASEPRI, r0
 80031a4:	4770      	bx	lr
 80031a6:	bf00      	nop

080031a8 <__get_PRIMASK>:
 */
uint32_t __get_PRIMASK(void)
{
  uint32_t result=0;

  __ASM volatile ("MRS %0, primask" : "=r" (result) );
 80031a8:	f3ef 8010 	mrs	r0, PRIMASK
  return(result);
}
 80031ac:	4770      	bx	lr
 80031ae:	bf00      	nop

080031b0 <__set_PRIMASK>:
 *
 * Set the priority mask bit in the priority mask register
 */
void __set_PRIMASK(uint32_t priMask)
{
  __ASM volatile ("MSR primask, %0" : : "r" (priMask) );
 80031b0:	f380 8810 	msr	PRIMASK, r0
 80031b4:	4770      	bx	lr
 80031b6:	bf00      	nop

080031b8 <__get_FAULTMASK>:
 */
uint32_t __get_FAULTMASK(void)
{
  uint32_t result=0;
  
  __ASM volatile ("MRS %0, faultmask" : "=r" (result) );
 80031b8:	f3ef 8013 	mrs	r0, FAULTMASK
  return(result);
}
 80031bc:	4770      	bx	lr
 80031be:	bf00      	nop

080031c0 <__set_FAULTMASK>:
 *
 * Set the fault mask register
 */
void __set_FAULTMASK(uint32_t faultMask)
{
  __ASM volatile ("MSR faultmask, %0" : : "r" (faultMask) );
 80031c0:	f380 8813 	msr	FAULTMASK, r0
 80031c4:	4770      	bx	lr
 80031c6:	bf00      	nop

080031c8 <__get_CONTROL>:
 */
uint32_t __get_CONTROL(void)
{
  uint32_t result=0;

  __ASM volatile ("MRS %0, control" : "=r" (result) );
 80031c8:	f3ef 8014 	mrs	r0, CONTROL
  return(result);
}
 80031cc:	4770      	bx	lr
 80031ce:	bf00      	nop

080031d0 <__set_CONTROL>:
 *
 * Set the control register
 */
void __set_CONTROL(uint32_t control)
{
  __ASM volatile ("MSR control, %0" : : "r" (control) );
 80031d0:	f380 8814 	msr	CONTROL, r0
 80031d4:	4770      	bx	lr
 80031d6:	bf00      	nop

080031d8 <__REV>:
 */
uint32_t __REV(uint32_t value)
{
  uint32_t result=0;
  
  __ASM volatile ("rev %0, %1" : "=r" (result) : "r" (value) );
 80031d8:	ba00      	rev	r0, r0
  return(result);
}
 80031da:	4770      	bx	lr

080031dc <__REV16>:
 */
uint32_t __REV16(uint16_t value)
{
  uint32_t result=0;
  
  __ASM volatile ("rev16 %0, %1" : "=r" (result) : "r" (value) );
 80031dc:	ba40      	rev16	r0, r0
  return(result);
}
 80031de:	4770      	bx	lr

080031e0 <__REVSH>:
 */
int32_t __REVSH(int16_t value)
{
  uint32_t result=0;
  
  __ASM volatile ("revsh %0, %1" : "=r" (result) : "r" (value) );
 80031e0:	bac0      	revsh	r0, r0
  return(result);
}
 80031e2:	4770      	bx	lr

080031e4 <__RBIT>:
 */
uint32_t __RBIT(uint32_t value)
{
  uint32_t result=0;
  
   __ASM volatile ("rbit %0, %1" : "=r" (result) : "r" (value) );
 80031e4:	fa90 f0a0 	rbit	r0, r0
   return(result);
}
 80031e8:	4770      	bx	lr
 80031ea:	bf00      	nop

080031ec <__LDREXB>:
 */
uint8_t __LDREXB(uint8_t *addr)
{
    uint8_t result=0;
  
   __ASM volatile ("ldrexb %0, [%1]" : "=r" (result) : "r" (addr) );
 80031ec:	e8d0 0f4f 	ldrexb	r0, [r0]
   return(result);
}
 80031f0:	b2c0      	uxtb	r0, r0
 80031f2:	4770      	bx	lr

080031f4 <__LDREXH>:
 */
uint16_t __LDREXH(uint16_t *addr)
{
    uint16_t result=0;
  
   __ASM volatile ("ldrexh %0, [%1]" : "=r" (result) : "r" (addr) );
 80031f4:	e8d0 0f5f 	ldrexh	r0, [r0]
   return(result);
}
 80031f8:	b280      	uxth	r0, r0
 80031fa:	4770      	bx	lr

080031fc <__LDREXW>:
 */
uint32_t __LDREXW(uint32_t *addr)
{
    uint32_t result=0;
  
   __ASM volatile ("ldrex %0, [%1]" : "=r" (result) : "r" (addr) );
 80031fc:	e850 0f00 	ldrex	r0, [r0]
   return(result);
}
 8003200:	4770      	bx	lr
 8003202:	bf00      	nop

08003204 <__STREXB>:
 */
uint32_t __STREXB(uint8_t value, uint8_t *addr)
{
   uint32_t result=0;
  
   __ASM volatile ("strexb %0, %2, [%1]" : "=&r" (result) : "r" (addr), "r" (value) );
 8003204:	e8c1 0f43 	strexb	r3, r0, [r1]
 8003208:	4618      	mov	r0, r3
   return(result);
}
 800320a:	4770      	bx	lr

0800320c <__STREXH>:
 */
uint32_t __STREXH(uint16_t value, uint16_t *addr)
{
   uint32_t result=0;
  
   __ASM volatile ("strexh %0, %2, [%1]" : "=&r" (result) : "r" (addr), "r" (value) );
 800320c:	e8c1 0f53 	strexh	r3, r0, [r1]
 8003210:	4618      	mov	r0, r3
   return(result);
}
 8003212:	4770      	bx	lr

08003214 <__STREXW>:
 */
uint32_t __STREXW(uint32_t value, uint32_t *addr)
{
   uint32_t result=0;
  
   __ASM volatile ("strex %0, %2, [%1]" : "=r" (result) : "r" (addr), "r" (value) );
 8003214:	e841 0000 	strex	r0, r0, [r1]
   return(result);
}
 8003218:	4770      	bx	lr
 800321a:	bf00      	nop

0800321c <Key_Poll_Init>:
#include "device_driver.h"

void Key_Poll_Init(void)
{
	Macro_Set_Bit(RCC->APB2ENR, 3);
 800321c:	f44f 5280 	mov.w	r2, #4096	; 0x1000
 8003220:	f2c4 0202 	movt	r2, #16386	; 0x4002
 8003224:	6991      	ldr	r1, [r2, #24]
	Macro_Write_Block(GPIOB->CRL, 0xff, 0x44, 24);
 8003226:	f44f 6340 	mov.w	r3, #3072	; 0xc00
#include "device_driver.h"

void Key_Poll_Init(void)
{
	Macro_Set_Bit(RCC->APB2ENR, 3);
 800322a:	f041 0108 	orr.w	r1, r1, #8
 800322e:	6191      	str	r1, [r2, #24]
	Macro_Write_Block(GPIOB->CRL, 0xff, 0x44, 24);
 8003230:	f2c4 0301 	movt	r3, #16385	; 0x4001
 8003234:	681a      	ldr	r2, [r3, #0]
 8003236:	f022 427f 	bic.w	r2, r2, #4278190080	; 0xff000000
 800323a:	f042 4288 	orr.w	r2, r2, #1140850688	; 0x44000000
 800323e:	601a      	str	r2, [r3, #0]
 8003240:	4770      	bx	lr
 8003242:	bf00      	nop

08003244 <Key_Get_Pressed>:

#define COUNT_FOR_CHAT 		20000

static int Key_Check_Input(void)
{
	return ~Macro_Extract_Area(GPIOB->IDR, 0x3, 6) & 0x3;
 8003244:	f44f 6140 	mov.w	r1, #3072	; 0xc00
 8003248:	f2c4 0101 	movt	r1, #16385	; 0x4001
 800324c:	6888      	ldr	r0, [r1, #8]
 800324e:	f644 6320 	movw	r3, #20000	; 0x4e20
 8003252:	f080 00c0 	eor.w	r0, r0, #192	; 0xc0
 8003256:	f3c0 1081 	ubfx	r0, r0, #6, #2
 800325a:	688a      	ldr	r2, [r1, #8]
 800325c:	f082 02c0 	eor.w	r2, r2, #192	; 0xc0
 8003260:	f3c2 1281 	ubfx	r2, r2, #6, #2
	{
		k = Key_Check_Input();

		for(i=0; i<COUNT_FOR_CHAT; i++)
		{
			if(k != Key_Check_Input())
 8003264:	4290      	cmp	r0, r2
 8003266:	d1f1      	bne.n	800324c <Key_Get_Pressed+0x8>

	for(;;)
	{
		k = Key_Check_Input();

		for(i=0; i<COUNT_FOR_CHAT; i++)
 8003268:	3b01      	subs	r3, #1
 800326a:	d1f6      	bne.n	800325a <Key_Get_Pressed+0x16>

		if(i == COUNT_FOR_CHAT) break;
	}

	return k;
}
 800326c:	4770      	bx	lr
 800326e:	bf00      	nop

08003270 <Key_Wait_Key_Released>:

#define COUNT_FOR_CHAT 		20000

static int Key_Check_Input(void)
{
	return ~Macro_Extract_Area(GPIOB->IDR, 0x3, 6) & 0x3;
 8003270:	f44f 6040 	mov.w	r0, #3072	; 0xc00
 8003274:	f2c4 0001 	movt	r0, #16385	; 0x4001
 8003278:	6881      	ldr	r1, [r0, #8]
 800327a:	f644 6320 	movw	r3, #20000	; 0x4e20
 800327e:	f081 01c0 	eor.w	r1, r1, #192	; 0xc0
 8003282:	f3c1 1181 	ubfx	r1, r1, #6, #2
 8003286:	6882      	ldr	r2, [r0, #8]
 8003288:	f082 02c0 	eor.w	r2, r2, #192	; 0xc0
 800328c:	f3c2 1281 	ubfx	r2, r2, #6, #2
	{
		k = Key_Check_Input();

		for(i=0; i<COUNT_FOR_CHAT; i++)
		{
			if(k != Key_Check_Input())
 8003290:	4291      	cmp	r1, r2
 8003292:	d1f1      	bne.n	8003278 <Key_Wait_Key_Released+0x8>

	for(;;)
	{
		k = Key_Check_Input();

		for(i=0; i<COUNT_FOR_CHAT; i++)
 8003294:	3b01      	subs	r3, #1
 8003296:	d1f6      	bne.n	8003286 <Key_Wait_Key_Released+0x16>
	return k;
}

void Key_Wait_Key_Released(void)
{
	while(Key_Get_Pressed());
 8003298:	2900      	cmp	r1, #0
 800329a:	d1ed      	bne.n	8003278 <Key_Wait_Key_Released+0x8>
}
 800329c:	4770      	bx	lr
 800329e:	bf00      	nop

080032a0 <Key_Wait_Key_Pressed>:

#define COUNT_FOR_CHAT 		20000

static int Key_Check_Input(void)
{
	return ~Macro_Extract_Area(GPIOB->IDR, 0x3, 6) & 0x3;
 80032a0:	f44f 6140 	mov.w	r1, #3072	; 0xc00
 80032a4:	f2c4 0101 	movt	r1, #16385	; 0x4001
 80032a8:	6888      	ldr	r0, [r1, #8]
 80032aa:	f644 6320 	movw	r3, #20000	; 0x4e20
 80032ae:	f080 00c0 	eor.w	r0, r0, #192	; 0xc0
 80032b2:	f3c0 1081 	ubfx	r0, r0, #6, #2
 80032b6:	688a      	ldr	r2, [r1, #8]
 80032b8:	f082 02c0 	eor.w	r2, r2, #192	; 0xc0
 80032bc:	f3c2 1281 	ubfx	r2, r2, #6, #2
	{
		k = Key_Check_Input();

		for(i=0; i<COUNT_FOR_CHAT; i++)
		{
			if(k != Key_Check_Input())
 80032c0:	4290      	cmp	r0, r2
 80032c2:	d1f1      	bne.n	80032a8 <Key_Wait_Key_Pressed+0x8>

	for(;;)
	{
		k = Key_Check_Input();

		for(i=0; i<COUNT_FOR_CHAT; i++)
 80032c4:	3b01      	subs	r3, #1
 80032c6:	d1f6      	bne.n	80032b6 <Key_Wait_Key_Pressed+0x16>

int Key_Wait_Key_Pressed(void)
{
	int k;

	while((k = Key_Get_Pressed()) == 0);
 80032c8:	2800      	cmp	r0, #0
 80032ca:	d0ed      	beq.n	80032a8 <Key_Wait_Key_Pressed+0x8>
	return k;
}
 80032cc:	4770      	bx	lr
 80032ce:	bf00      	nop

080032d0 <LED_Init>:
#include "device_driver.h"

void LED_Init(void)
{
	Macro_Set_Bit(RCC->APB2ENR, 3);
 80032d0:	f44f 5280 	mov.w	r2, #4096	; 0x1000
 80032d4:	f2c4 0202 	movt	r2, #16386	; 0x4002
 80032d8:	6991      	ldr	r1, [r2, #24]
	Macro_Write_Block(GPIOB->CRH, 0xff, 0x66, 0);
 80032da:	f44f 6340 	mov.w	r3, #3072	; 0xc00
#include "device_driver.h"

void LED_Init(void)
{
	Macro_Set_Bit(RCC->APB2ENR, 3);
 80032de:	f041 0108 	orr.w	r1, r1, #8
 80032e2:	6191      	str	r1, [r2, #24]
	Macro_Write_Block(GPIOB->CRH, 0xff, 0x66, 0);
 80032e4:	f2c4 0301 	movt	r3, #16385	; 0x4001
 80032e8:	685a      	ldr	r2, [r3, #4]
 80032ea:	f022 02ff 	bic.w	r2, r2, #255	; 0xff
 80032ee:	f042 0266 	orr.w	r2, r2, #102	; 0x66
 80032f2:	605a      	str	r2, [r3, #4]
	Macro_Set_Area(GPIOB->ODR, 0x3, 8);
 80032f4:	68da      	ldr	r2, [r3, #12]
 80032f6:	f442 7240 	orr.w	r2, r2, #768	; 0x300
 80032fa:	60da      	str	r2, [r3, #12]
 80032fc:	4770      	bx	lr
 80032fe:	bf00      	nop

08003300 <LED_Display>:
}

void LED_Display(unsigned int num)
{
	Macro_Write_Block(GPIOB->ODR, 0x3, (~num & 3), 8);
 8003300:	f44f 6340 	mov.w	r3, #3072	; 0xc00
 8003304:	f2c4 0301 	movt	r3, #16385	; 0x4001
 8003308:	68da      	ldr	r2, [r3, #12]
 800330a:	43c0      	mvns	r0, r0
 800330c:	f000 0003 	and.w	r0, r0, #3
 8003310:	f422 7240 	bic.w	r2, r2, #768	; 0x300
 8003314:	ea42 2200 	orr.w	r2, r2, r0, lsl #8
 8003318:	60da      	str	r2, [r3, #12]
 800331a:	4770      	bx	lr

0800331c <LED_All_On>:
}

void LED_All_On(void)
{
	Macro_Clear_Area(GPIOB->ODR, 0x3, 8);
 800331c:	f44f 6340 	mov.w	r3, #3072	; 0xc00
 8003320:	f2c4 0301 	movt	r3, #16385	; 0x4001
 8003324:	68da      	ldr	r2, [r3, #12]
 8003326:	f422 7240 	bic.w	r2, r2, #768	; 0x300
 800332a:	60da      	str	r2, [r3, #12]
 800332c:	4770      	bx	lr
 800332e:	bf00      	nop

08003330 <LED_All_Off>:
}

void LED_All_Off(void)
{
	Macro_Set_Area(GPIOB->ODR, 0x3, 8);
 8003330:	f44f 6340 	mov.w	r3, #3072	; 0xc00
 8003334:	f2c4 0301 	movt	r3, #16385	; 0x4001
 8003338:	68da      	ldr	r2, [r3, #12]
 800333a:	f442 7240 	orr.w	r2, r2, #768	; 0x300
 800333e:	60da      	str	r2, [r3, #12]
 8003340:	4770      	bx	lr
 8003342:	bf00      	nop

08003344 <Main>:
	Uart_Init(115200);
	Key_Poll_Init();
}

void Main(void)
{
 8003344:	b500      	push	{lr}
 8003346:	b083      	sub	sp, #12
#include "device_driver.h"

static void Sys_Init(void)
{
	Clock_Init();
 8003348:	f7ff feea 	bl	8003120 <Clock_Init>
	LED_Init();
 800334c:	f7ff ffc0 	bl	80032d0 <LED_Init>
	Uart_Init(115200);
 8003350:	f44f 30e1 	mov.w	r0, #115200	; 0x1c200
 8003354:	f000 fd10 	bl	8003d78 <Uart1_Init>
	Key_Poll_Init();
 8003358:	f7ff ff60 	bl	800321c <Key_Poll_Init>
}

void Main(void)
{
	Sys_Init();
	Tim2_Pwm_Init();
 800335c:	f000 f818 	bl	8003390 <Tim2_Pwm_Init>
	
	Adc_Cds_Init();
 8003360:	f7ff fe72 	bl	8003048 <Adc_Cds_Init>
 8003364:	e004      	b.n	8003370 <Main+0x2c>
		
		if((rx=Uart1_Get_Pressed())!=0)
		{
			Moter_Run(rx);
		}
		if((key=Key_Get_Pressed()) != 0)
 8003366:	f7ff ff6d 	bl	8003244 <Key_Get_Pressed>
 800336a:	b958      	cbnz	r0, 8003384 <Main+0x40>
		{
			Key_Wait_Key_Released();
		}
		Moter_Mode(key);
 800336c:	f000 f9fc 	bl	8003768 <Moter_Mode>
		// for(int j=0;j<0x100000;j++){}

		char rx;
		int  key;
		
		if((rx=Uart1_Get_Pressed())!=0)
 8003370:	f000 fdce 	bl	8003f10 <Uart1_Get_Pressed>
 8003374:	2800      	cmp	r0, #0
 8003376:	d0f6      	beq.n	8003366 <Main+0x22>
		{
			Moter_Run(rx);
 8003378:	f000 f8de 	bl	8003538 <Moter_Run>
		}
		if((key=Key_Get_Pressed()) != 0)
 800337c:	f7ff ff62 	bl	8003244 <Key_Get_Pressed>
 8003380:	2800      	cmp	r0, #0
 8003382:	d0f3      	beq.n	800336c <Main+0x28>
		{
			Key_Wait_Key_Released();
 8003384:	9001      	str	r0, [sp, #4]
 8003386:	f7ff ff73 	bl	8003270 <Key_Wait_Key_Released>
 800338a:	9801      	ldr	r0, [sp, #4]
 800338c:	e7ee      	b.n	800336c <Main+0x28>
 800338e:	bf00      	nop

08003390 <Tim2_Pwm_Init>:
unsigned int k;
unsigned int i;
unsigned int modeState;

void Tim2_Pwm_Init()
{
 8003390:	b410      	push	{r4}
    Macro_Set_Bit(RCC->APB2ENR,2);
 8003392:	f44f 5180 	mov.w	r1, #4096	; 0x1000
 8003396:	f2c4 0102 	movt	r1, #16386	; 0x4002
 800339a:	698b      	ldr	r3, [r1, #24]
    Macro_Write_Block(GPIOA->CRL,0xff,0xbb,8);
 800339c:	f44f 6200 	mov.w	r2, #2048	; 0x800
unsigned int i;
unsigned int modeState;

void Tim2_Pwm_Init()
{
    Macro_Set_Bit(RCC->APB2ENR,2);
 80033a0:	f043 0304 	orr.w	r3, r3, #4
 80033a4:	618b      	str	r3, [r1, #24]
    Macro_Write_Block(GPIOA->CRL,0xff,0xbb,8);
 80033a6:	f2c4 0201 	movt	r2, #16385	; 0x4001
 80033aa:	6810      	ldr	r0, [r2, #0]
    
    Macro_Set_Bit(RCC->APB1ENR,0);

    Macro_Write_Block(TIM2->CCMR2,0xf,0x7,3);  // TIM2 3채널 PWM 모드
 80033ac:	f04f 4380 	mov.w	r3, #1073741824	; 0x40000000
unsigned int modeState;

void Tim2_Pwm_Init()
{
    Macro_Set_Bit(RCC->APB2ENR,2);
    Macro_Write_Block(GPIOA->CRL,0xff,0xbb,8);
 80033b0:	f420 407f 	bic.w	r0, r0, #65280	; 0xff00
 80033b4:	f440 403b 	orr.w	r0, r0, #47872	; 0xbb00
 80033b8:	6010      	str	r0, [r2, #0]
    
    Macro_Set_Bit(RCC->APB1ENR,0);
 80033ba:	69c8      	ldr	r0, [r1, #28]
    Macro_Write_Block(TIM2->CCER,0x3,0x1,8);
    Macro_Write_Block(TIM2->CCMR2,0xf,0x7,11); // TIM2 4채널 PWM 모드
    Macro_Write_Block(TIM2->CCER,0x3,0x1,12);
    Macro_Write_Block(TIM2->CCMR2,0x3,0x0,8);

    freq_state=200000;
 80033bc:	f240 5280 	movw	r2, #1408	; 0x580
void Tim2_Pwm_Init()
{
    Macro_Set_Bit(RCC->APB2ENR,2);
    Macro_Write_Block(GPIOA->CRL,0xff,0xbb,8);
    
    Macro_Set_Bit(RCC->APB1ENR,0);
 80033c0:	f040 0001 	orr.w	r0, r0, #1
 80033c4:	61c8      	str	r0, [r1, #28]

    Macro_Write_Block(TIM2->CCMR2,0xf,0x7,3);  // TIM2 3채널 PWM 모드
 80033c6:	8b99      	ldrh	r1, [r3, #28]
    Macro_Write_Block(TIM2->CCER,0x3,0x1,8);
    Macro_Write_Block(TIM2->CCMR2,0xf,0x7,11); // TIM2 4채널 PWM 모드
    Macro_Write_Block(TIM2->CCER,0x3,0x1,12);
    Macro_Write_Block(TIM2->CCMR2,0x3,0x0,8);

    freq_state=200000;
 80033c8:	f44f 6454 	mov.w	r4, #3392	; 0xd40
    Macro_Set_Bit(RCC->APB2ENR,2);
    Macro_Write_Block(GPIOA->CRL,0xff,0xbb,8);
    
    Macro_Set_Bit(RCC->APB1ENR,0);

    Macro_Write_Block(TIM2->CCMR2,0xf,0x7,3);  // TIM2 3채널 PWM 모드
 80033cc:	f021 0178 	bic.w	r1, r1, #120	; 0x78
 80033d0:	0409      	lsls	r1, r1, #16
 80033d2:	0c09      	lsrs	r1, r1, #16
 80033d4:	f041 0138 	orr.w	r1, r1, #56	; 0x38
 80033d8:	8399      	strh	r1, [r3, #28]
    Macro_Write_Block(TIM2->CCMR2,0x3,0x0,0);
 80033da:	8b99      	ldrh	r1, [r3, #28]
    Macro_Write_Block(TIM2->CCER,0x3,0x1,8);
    Macro_Write_Block(TIM2->CCMR2,0xf,0x7,11); // TIM2 4채널 PWM 모드
    Macro_Write_Block(TIM2->CCER,0x3,0x1,12);
    Macro_Write_Block(TIM2->CCMR2,0x3,0x0,8);

    freq_state=200000;
 80033dc:	f2c2 0200 	movt	r2, #8192	; 0x2000
    Macro_Write_Block(GPIOA->CRL,0xff,0xbb,8);
    
    Macro_Set_Bit(RCC->APB1ENR,0);

    Macro_Write_Block(TIM2->CCMR2,0xf,0x7,3);  // TIM2 3채널 PWM 모드
    Macro_Write_Block(TIM2->CCMR2,0x3,0x0,0);
 80033e0:	f021 0103 	bic.w	r1, r1, #3
 80033e4:	0409      	lsls	r1, r1, #16
 80033e6:	0c09      	lsrs	r1, r1, #16
 80033e8:	8399      	strh	r1, [r3, #28]
    Macro_Write_Block(TIM2->CCER,0x3,0x1,8);
 80033ea:	8c19      	ldrh	r1, [r3, #32]
    Macro_Write_Block(TIM2->CCMR2,0xf,0x7,11); // TIM2 4채널 PWM 모드
    Macro_Write_Block(TIM2->CCER,0x3,0x1,12);
    Macro_Write_Block(TIM2->CCMR2,0x3,0x0,8);

    freq_state=200000;
    k=0;
 80033ec:	2000      	movs	r0, #0
    
    Macro_Set_Bit(RCC->APB1ENR,0);

    Macro_Write_Block(TIM2->CCMR2,0xf,0x7,3);  // TIM2 3채널 PWM 모드
    Macro_Write_Block(TIM2->CCMR2,0x3,0x0,0);
    Macro_Write_Block(TIM2->CCER,0x3,0x1,8);
 80033ee:	f421 7140 	bic.w	r1, r1, #768	; 0x300
 80033f2:	0409      	lsls	r1, r1, #16
 80033f4:	0c09      	lsrs	r1, r1, #16
 80033f6:	f441 7180 	orr.w	r1, r1, #256	; 0x100
 80033fa:	8419      	strh	r1, [r3, #32]
    Macro_Write_Block(TIM2->CCMR2,0xf,0x7,11); // TIM2 4채널 PWM 모드
 80033fc:	8b99      	ldrh	r1, [r3, #28]
    Macro_Write_Block(TIM2->CCER,0x3,0x1,12);
    Macro_Write_Block(TIM2->CCMR2,0x3,0x0,8);

    freq_state=200000;
 80033fe:	f2c0 0403 	movt	r4, #3
    Macro_Set_Bit(RCC->APB1ENR,0);

    Macro_Write_Block(TIM2->CCMR2,0xf,0x7,3);  // TIM2 3채널 PWM 모드
    Macro_Write_Block(TIM2->CCMR2,0x3,0x0,0);
    Macro_Write_Block(TIM2->CCER,0x3,0x1,8);
    Macro_Write_Block(TIM2->CCMR2,0xf,0x7,11); // TIM2 4채널 PWM 모드
 8003402:	f421 41f0 	bic.w	r1, r1, #30720	; 0x7800
 8003406:	0409      	lsls	r1, r1, #16
 8003408:	0c09      	lsrs	r1, r1, #16
 800340a:	f441 5160 	orr.w	r1, r1, #14336	; 0x3800
 800340e:	8399      	strh	r1, [r3, #28]
    Macro_Write_Block(TIM2->CCER,0x3,0x1,12);
 8003410:	8c19      	ldrh	r1, [r3, #32]
 8003412:	f421 5140 	bic.w	r1, r1, #12288	; 0x3000
 8003416:	0409      	lsls	r1, r1, #16
 8003418:	0c09      	lsrs	r1, r1, #16
 800341a:	f441 5180 	orr.w	r1, r1, #4096	; 0x1000
 800341e:	8419      	strh	r1, [r3, #32]
    Macro_Write_Block(TIM2->CCMR2,0x3,0x0,8);
 8003420:	8b99      	ldrh	r1, [r3, #28]
 8003422:	f421 7140 	bic.w	r1, r1, #768	; 0x300
 8003426:	0409      	lsls	r1, r1, #16
 8003428:	0c09      	lsrs	r1, r1, #16
 800342a:	8399      	strh	r1, [r3, #28]

    freq_state=200000;
 800342c:	6014      	str	r4, [r2, #0]
    k=0;
 800342e:	6050      	str	r0, [r2, #4]
    i=0;
 8003430:	6090      	str	r0, [r2, #8]
    modeState=Standard;
 8003432:	60d0      	str	r0, [r2, #12]


}
 8003434:	f85d 4b04 	ldr.w	r4, [sp], #4
 8003438:	4770      	bx	lr
 800343a:	bf00      	nop

0800343c <Tim2_Freq_Generation>:

void Tim2_Freq_Generation(unsigned int freq,unsigned int duty)
{
 800343c:	b538      	push	{r3, r4, r5, lr}
    
    TIM2->PSC = (unsigned int)(TIMXCLK/TIM2_FREQ+0.5) - 1;
 800343e:	f04f 4480 	mov.w	r4, #1073741824	; 0x40000000
 8003442:	f240 1367 	movw	r3, #359	; 0x167
 8003446:	8523      	strh	r3, [r4, #40]	; 0x28


}

void Tim2_Freq_Generation(unsigned int freq,unsigned int duty)
{
 8003448:	460d      	mov	r5, r1
    
    TIM2->PSC = (unsigned int)(TIMXCLK/TIM2_FREQ+0.5) - 1;
    TIM2->ARR = TIM2_FREQ/freq;
 800344a:	f005 ff2d 	bl	80092a8 <__aeabi_ui2d>
 800344e:	4602      	mov	r2, r0
 8003450:	460b      	mov	r3, r1
 8003452:	a111      	add	r1, pc, #68	; (adr r1, 8003498 <Tim2_Freq_Generation+0x5c>)
 8003454:	e9d1 0100 	ldrd	r0, r1, [r1]
 8003458:	f006 f8c6 	bl	80095e8 <__aeabi_ddiv>
 800345c:	f006 fa5c 	bl	8009918 <__aeabi_d2uiz>
 8003460:	b280      	uxth	r0, r0
 8003462:	85a0      	strh	r0, [r4, #44]	; 0x2c
    TIM2->CCR3 = TIM2->ARR/duty;
 8003464:	8da2      	ldrh	r2, [r4, #44]	; 0x2c
    TIM2->CCR4 = TIM2->ARR/duty;
    
    Macro_Set_Bit(TIM2->DIER,0);
    
    Macro_Set_Bit(TIM2->EGR,0);
    TIM2->CR1 = (1<<4)|(0<<3)|(1<<0);
 8003466:	2311      	movs	r3, #17
void Tim2_Freq_Generation(unsigned int freq,unsigned int duty)
{
    
    TIM2->PSC = (unsigned int)(TIMXCLK/TIM2_FREQ+0.5) - 1;
    TIM2->ARR = TIM2_FREQ/freq;
    TIM2->CCR3 = TIM2->ARR/duty;
 8003468:	b292      	uxth	r2, r2
 800346a:	fbb2 f2f5 	udiv	r2, r2, r5
 800346e:	87a2      	strh	r2, [r4, #60]	; 0x3c
    TIM2->CCR4 = TIM2->ARR/duty;
 8003470:	8da2      	ldrh	r2, [r4, #44]	; 0x2c
 8003472:	b292      	uxth	r2, r2
 8003474:	fbb2 f5f5 	udiv	r5, r2, r5
 8003478:	f8a4 5040 	strh.w	r5, [r4, #64]	; 0x40
    
    Macro_Set_Bit(TIM2->DIER,0);
 800347c:	89a2      	ldrh	r2, [r4, #12]
 800347e:	b292      	uxth	r2, r2
 8003480:	f042 0201 	orr.w	r2, r2, #1
 8003484:	81a2      	strh	r2, [r4, #12]
    
    Macro_Set_Bit(TIM2->EGR,0);
 8003486:	8aa2      	ldrh	r2, [r4, #20]
 8003488:	b292      	uxth	r2, r2
 800348a:	f042 0201 	orr.w	r2, r2, #1
 800348e:	82a2      	strh	r2, [r4, #20]
    TIM2->CR1 = (1<<4)|(0<<3)|(1<<0);
 8003490:	8023      	strh	r3, [r4, #0]
 8003492:	bd38      	pop	{r3, r4, r5, pc}
 8003494:	f3af 8000 	nop.w
 8003498:	00000000 	andeq	r0, r0, r0
 800349c:	41086a00 	tstmi	r8, r0, lsl #20

080034a0 <Moter_Right>:
//     TIM2->CCR4 = TIM2->ARR/duty;
// }

void Moter_Right()
{
    Macro_Set_Bit(TIM2->CR1,0);
 80034a0:	f04f 4380 	mov.w	r3, #1073741824	; 0x40000000
 80034a4:	881a      	ldrh	r2, [r3, #0]
 80034a6:	b292      	uxth	r2, r2
 80034a8:	f042 0201 	orr.w	r2, r2, #1
 80034ac:	801a      	strh	r2, [r3, #0]
    Macro_Set_Bit(TIM2->DIER,0);
 80034ae:	899a      	ldrh	r2, [r3, #12]
 80034b0:	b292      	uxth	r2, r2
 80034b2:	f042 0201 	orr.w	r2, r2, #1
 80034b6:	819a      	strh	r2, [r3, #12]
    Macro_Set_Bit(TIM2->CCER,12);
 80034b8:	8c1a      	ldrh	r2, [r3, #32]
 80034ba:	b292      	uxth	r2, r2
 80034bc:	f442 5280 	orr.w	r2, r2, #4096	; 0x1000
 80034c0:	841a      	strh	r2, [r3, #32]
    Macro_Clear_Bit(TIM2->CCER,8);
 80034c2:	8c1a      	ldrh	r2, [r3, #32]
 80034c4:	f422 7280 	bic.w	r2, r2, #256	; 0x100
 80034c8:	0412      	lsls	r2, r2, #16
 80034ca:	0c12      	lsrs	r2, r2, #16
 80034cc:	841a      	strh	r2, [r3, #32]
 80034ce:	4770      	bx	lr

080034d0 <Moter_Left>:

}
void Moter_Left()
{
    Macro_Set_Bit(TIM2->CR1,0);
 80034d0:	f04f 4380 	mov.w	r3, #1073741824	; 0x40000000
 80034d4:	881a      	ldrh	r2, [r3, #0]
 80034d6:	b292      	uxth	r2, r2
 80034d8:	f042 0201 	orr.w	r2, r2, #1
 80034dc:	801a      	strh	r2, [r3, #0]
    Macro_Set_Bit(TIM2->DIER,0);
 80034de:	899a      	ldrh	r2, [r3, #12]
 80034e0:	b292      	uxth	r2, r2
 80034e2:	f042 0201 	orr.w	r2, r2, #1
 80034e6:	819a      	strh	r2, [r3, #12]
    Macro_Set_Bit(TIM2->CCER,8);
 80034e8:	8c1a      	ldrh	r2, [r3, #32]
 80034ea:	b292      	uxth	r2, r2
 80034ec:	f442 7280 	orr.w	r2, r2, #256	; 0x100
 80034f0:	841a      	strh	r2, [r3, #32]
    Macro_Clear_Bit(TIM2->CCER,12);
 80034f2:	8c1a      	ldrh	r2, [r3, #32]
 80034f4:	f422 5280 	bic.w	r2, r2, #4096	; 0x1000
 80034f8:	0412      	lsls	r2, r2, #16
 80034fa:	0c12      	lsrs	r2, r2, #16
 80034fc:	841a      	strh	r2, [r3, #32]
 80034fe:	4770      	bx	lr

08003500 <Moter_Stop>:
}

void Moter_Stop()
{
    Macro_Clear_Bit(TIM2->CCER,8);
 8003500:	f04f 4380 	mov.w	r3, #1073741824	; 0x40000000
 8003504:	8c1a      	ldrh	r2, [r3, #32]
 8003506:	f422 7280 	bic.w	r2, r2, #256	; 0x100
 800350a:	0412      	lsls	r2, r2, #16
 800350c:	0c12      	lsrs	r2, r2, #16
 800350e:	841a      	strh	r2, [r3, #32]
    Macro_Clear_Bit(TIM2->CCER,12);
 8003510:	8c1a      	ldrh	r2, [r3, #32]
 8003512:	f422 5280 	bic.w	r2, r2, #4096	; 0x1000
 8003516:	0412      	lsls	r2, r2, #16
 8003518:	0c12      	lsrs	r2, r2, #16
 800351a:	841a      	strh	r2, [r3, #32]
    Macro_Clear_Bit(TIM2->CR1,0);
 800351c:	881a      	ldrh	r2, [r3, #0]
 800351e:	f022 0201 	bic.w	r2, r2, #1
 8003522:	0412      	lsls	r2, r2, #16
 8003524:	0c12      	lsrs	r2, r2, #16
 8003526:	801a      	strh	r2, [r3, #0]
    Macro_Clear_Bit(TIM2->DIER,0);
 8003528:	899a      	ldrh	r2, [r3, #12]
 800352a:	f022 0201 	bic.w	r2, r2, #1
 800352e:	0412      	lsls	r2, r2, #16
 8003530:	0c12      	lsrs	r2, r2, #16
 8003532:	819a      	strh	r2, [r3, #12]
 8003534:	4770      	bx	lr
 8003536:	bf00      	nop

08003538 <Moter_Run>:

}

void Moter_Run(char rx)
{
    if(rx == 's')       // 조건을 걸어 두지 않아 cds,auto모드 일 때도 뱡향 전환가능능
 8003538:	2873      	cmp	r0, #115	; 0x73
    Macro_Clear_Bit(TIM2->DIER,0);

}

void Moter_Run(char rx)
{
 800353a:	b510      	push	{r4, lr}
 800353c:	4601      	mov	r1, r0
    if(rx == 's')       // 조건을 걸어 두지 않아 cds,auto모드 일 때도 뱡향 전환가능능
 800353e:	d056      	beq.n	80035ee <Moter_Run+0xb6>
		Uart1_Printf("\n>정지모드 %c\n", rx);

		Moter_Stop();
        return;
		}
	if(rx == 'f')
 8003540:	2866      	cmp	r0, #102	; 0x66
 8003542:	d075      	beq.n	8003630 <Moter_Run+0xf8>
		Uart1_Printf("\n>정방향모드 %c\n", rx);
		Moter_Right();
        return;

		}
	if(rx == 'r')
 8003544:	2872      	cmp	r0, #114	; 0x72
 8003546:	f000 8091 	beq.w	800366c <Moter_Run+0x134>
        return;

		}

        
    if(modeState==Standard)  //기본 모드일때만 단계 변경 가능.
 800354a:	f240 5480 	movw	r4, #1408	; 0x580
 800354e:	f2c2 0400 	movt	r4, #8192	; 0x2000
 8003552:	68e3      	ldr	r3, [r4, #12]
 8003554:	b9d3      	cbnz	r3, 800358c <Moter_Run+0x54>
    {
        if(rx == '9')
 8003556:	2839      	cmp	r0, #57	; 0x39
 8003558:	f000 80a6 	beq.w	80036a8 <Moter_Run+0x170>
            
            freq_state=30;
            Uart1_Printf("\n>9단계\n");
            
        }
        else if(rx == '8')
 800355c:	2838      	cmp	r0, #56	; 0x38
 800355e:	f000 80c2 	beq.w	80036e6 <Moter_Run+0x1ae>
            
            freq_state=50;
            Uart1_Printf("\n>8단계\n");
            
        }
        else if(rx == '7')
 8003562:	2837      	cmp	r0, #55	; 0x37
 8003564:	f000 80c8 	beq.w	80036f8 <Moter_Run+0x1c0>
        
            freq_state=100;
            Uart1_Printf("\n>7단계\n");
            
        }
        else if(rx == '6')
 8003568:	2836      	cmp	r0, #54	; 0x36
 800356a:	f000 80ce 	beq.w	800370a <Moter_Run+0x1d2>
        {

            freq_state=500;
            Uart1_Printf("\n>6단계\n");
        }
        else if(rx == '5')
 800356e:	2835      	cmp	r0, #53	; 0x35
 8003570:	f000 80a3 	beq.w	80036ba <Moter_Run+0x182>
        {
            freq_state=10000;
            Uart1_Printf("\n>5단계\n");
            
        }
        else if(rx == '4')
 8003574:	2834      	cmp	r0, #52	; 0x34
 8003576:	f000 80d2 	beq.w	800371e <Moter_Run+0x1e6>
        {
            freq_state=20000;
            Uart1_Printf("\n>4단계\n");
            
        }
        else if(rx == '3')
 800357a:	2833      	cmp	r0, #51	; 0x33
 800357c:	f000 80d9 	beq.w	8003732 <Moter_Run+0x1fa>
        {
            freq_state=50000;
            Uart1_Printf("\n>3단계\n");
            
        }
        else if(rx == '2')
 8003580:	2832      	cmp	r0, #50	; 0x32
 8003582:	f000 80e0 	beq.w	8003746 <Moter_Run+0x20e>
        {
            freq_state=100000;
            Uart1_Printf("\n>2단계\n");
            
        }
        else if(rx == '1')
 8003586:	2831      	cmp	r0, #49	; 0x31
 8003588:	f000 80a1 	beq.w	80036ce <Moter_Run+0x196>
            Uart1_Printf("\n>1단계\n");
        
        }
    }

    Tim2_Freq_Generation(freq_state,5);   //변경된 주파수를 실시간으로 적용용
 800358c:	6820      	ldr	r0, [r4, #0]
}

void Tim2_Freq_Generation(unsigned int freq,unsigned int duty)
{
    
    TIM2->PSC = (unsigned int)(TIMXCLK/TIM2_FREQ+0.5) - 1;
 800358e:	f240 1367 	movw	r3, #359	; 0x167
 8003592:	f04f 4480 	mov.w	r4, #1073741824	; 0x40000000
 8003596:	8523      	strh	r3, [r4, #40]	; 0x28
    TIM2->ARR = TIM2_FREQ/freq;
 8003598:	f005 fe86 	bl	80092a8 <__aeabi_ui2d>
 800359c:	4602      	mov	r2, r0
 800359e:	460b      	mov	r3, r1
 80035a0:	a16f      	add	r1, pc, #444	; (adr r1, 8003760 <Moter_Run+0x228>)
 80035a2:	e9d1 0100 	ldrd	r0, r1, [r1]
 80035a6:	f006 f81f 	bl	80095e8 <__aeabi_ddiv>
 80035aa:	f006 f9b5 	bl	8009918 <__aeabi_d2uiz>
 80035ae:	b280      	uxth	r0, r0
 80035b0:	85a0      	strh	r0, [r4, #44]	; 0x2c
    TIM2->CCR3 = TIM2->ARR/duty;
 80035b2:	8da2      	ldrh	r2, [r4, #44]	; 0x2c
 80035b4:	f64c 43cd 	movw	r3, #52429	; 0xcccd
 80035b8:	f6cc 43cc 	movt	r3, #52428	; 0xcccc
 80035bc:	b292      	uxth	r2, r2
 80035be:	fba3 0202 	umull	r0, r2, r3, r2
 80035c2:	0892      	lsrs	r2, r2, #2
 80035c4:	87a2      	strh	r2, [r4, #60]	; 0x3c
    TIM2->CCR4 = TIM2->ARR/duty;
 80035c6:	8da1      	ldrh	r1, [r4, #44]	; 0x2c
    
    Macro_Set_Bit(TIM2->DIER,0);
    
    Macro_Set_Bit(TIM2->EGR,0);
    TIM2->CR1 = (1<<4)|(0<<3)|(1<<0);
 80035c8:	2211      	movs	r2, #17
{
    
    TIM2->PSC = (unsigned int)(TIMXCLK/TIM2_FREQ+0.5) - 1;
    TIM2->ARR = TIM2_FREQ/freq;
    TIM2->CCR3 = TIM2->ARR/duty;
    TIM2->CCR4 = TIM2->ARR/duty;
 80035ca:	b289      	uxth	r1, r1
 80035cc:	fba3 0301 	umull	r0, r3, r3, r1
 80035d0:	089b      	lsrs	r3, r3, #2
 80035d2:	f8a4 3040 	strh.w	r3, [r4, #64]	; 0x40
    
    Macro_Set_Bit(TIM2->DIER,0);
 80035d6:	89a3      	ldrh	r3, [r4, #12]
 80035d8:	b29b      	uxth	r3, r3
 80035da:	f043 0301 	orr.w	r3, r3, #1
 80035de:	81a3      	strh	r3, [r4, #12]
    
    Macro_Set_Bit(TIM2->EGR,0);
 80035e0:	8aa3      	ldrh	r3, [r4, #20]
 80035e2:	b29b      	uxth	r3, r3
 80035e4:	f043 0301 	orr.w	r3, r3, #1
 80035e8:	82a3      	strh	r3, [r4, #20]
    TIM2->CR1 = (1<<4)|(0<<3)|(1<<0);
 80035ea:	8022      	strh	r2, [r4, #0]
 80035ec:	bd10      	pop	{r4, pc}

void Moter_Run(char rx)
{
    if(rx == 's')       // 조건을 걸어 두지 않아 cds,auto모드 일 때도 뱡향 전환가능능
		{
		Uart1_Printf("\n>정지모드 %c\n", rx);
 80035ee:	f24a 10b0 	movw	r0, #41392	; 0xa1b0
 80035f2:	f6c0 0000 	movt	r0, #2048	; 0x800
 80035f6:	f000 fc5b 	bl	8003eb0 <Uart1_Printf>
    Macro_Clear_Bit(TIM2->CCER,12);
}

void Moter_Stop()
{
    Macro_Clear_Bit(TIM2->CCER,8);
 80035fa:	f04f 4380 	mov.w	r3, #1073741824	; 0x40000000
 80035fe:	8c1a      	ldrh	r2, [r3, #32]
 8003600:	f422 7280 	bic.w	r2, r2, #256	; 0x100
 8003604:	0412      	lsls	r2, r2, #16
 8003606:	0c12      	lsrs	r2, r2, #16
 8003608:	841a      	strh	r2, [r3, #32]
    Macro_Clear_Bit(TIM2->CCER,12);
 800360a:	8c1a      	ldrh	r2, [r3, #32]
 800360c:	f422 5280 	bic.w	r2, r2, #4096	; 0x1000
 8003610:	0412      	lsls	r2, r2, #16
 8003612:	0c12      	lsrs	r2, r2, #16
 8003614:	841a      	strh	r2, [r3, #32]
    Macro_Clear_Bit(TIM2->CR1,0);
 8003616:	881a      	ldrh	r2, [r3, #0]
 8003618:	f022 0201 	bic.w	r2, r2, #1
 800361c:	0412      	lsls	r2, r2, #16
 800361e:	0c12      	lsrs	r2, r2, #16
 8003620:	801a      	strh	r2, [r3, #0]
    Macro_Clear_Bit(TIM2->DIER,0);
 8003622:	899a      	ldrh	r2, [r3, #12]
 8003624:	f022 0201 	bic.w	r2, r2, #1
 8003628:	0412      	lsls	r2, r2, #16
 800362a:	0c12      	lsrs	r2, r2, #16
 800362c:	819a      	strh	r2, [r3, #12]
 800362e:	bd10      	pop	{r4, pc}
		Moter_Stop();
        return;
		}
	if(rx == 'f')
		{
		Uart1_Printf("\n>정방향모드 %c\n", rx);
 8003630:	f24a 10c4 	movw	r0, #41412	; 0xa1c4
 8003634:	f6c0 0000 	movt	r0, #2048	; 0x800
 8003638:	f000 fc3a 	bl	8003eb0 <Uart1_Printf>
//     TIM2->CCR4 = TIM2->ARR/duty;
// }

void Moter_Right()
{
    Macro_Set_Bit(TIM2->CR1,0);
 800363c:	f04f 4380 	mov.w	r3, #1073741824	; 0x40000000
 8003640:	881a      	ldrh	r2, [r3, #0]
 8003642:	b292      	uxth	r2, r2
 8003644:	f042 0201 	orr.w	r2, r2, #1
 8003648:	801a      	strh	r2, [r3, #0]
    Macro_Set_Bit(TIM2->DIER,0);
 800364a:	899a      	ldrh	r2, [r3, #12]
 800364c:	b292      	uxth	r2, r2
 800364e:	f042 0201 	orr.w	r2, r2, #1
 8003652:	819a      	strh	r2, [r3, #12]
    Macro_Set_Bit(TIM2->CCER,12);
 8003654:	8c1a      	ldrh	r2, [r3, #32]
 8003656:	b292      	uxth	r2, r2
 8003658:	f442 5280 	orr.w	r2, r2, #4096	; 0x1000
 800365c:	841a      	strh	r2, [r3, #32]
    Macro_Clear_Bit(TIM2->CCER,8);
 800365e:	8c1a      	ldrh	r2, [r3, #32]
 8003660:	f422 7280 	bic.w	r2, r2, #256	; 0x100
 8003664:	0412      	lsls	r2, r2, #16
 8003666:	0c12      	lsrs	r2, r2, #16
 8003668:	841a      	strh	r2, [r3, #32]
 800366a:	bd10      	pop	{r4, pc}
        return;

		}
	if(rx == 'r')
		{
		Uart1_Printf("\n>역방향모드 %c\n", rx);
 800366c:	f24a 10dc 	movw	r0, #41436	; 0xa1dc
 8003670:	f6c0 0000 	movt	r0, #2048	; 0x800
 8003674:	f000 fc1c 	bl	8003eb0 <Uart1_Printf>
    Macro_Clear_Bit(TIM2->CCER,8);

}
void Moter_Left()
{
    Macro_Set_Bit(TIM2->CR1,0);
 8003678:	f04f 4380 	mov.w	r3, #1073741824	; 0x40000000
 800367c:	881a      	ldrh	r2, [r3, #0]
 800367e:	b292      	uxth	r2, r2
 8003680:	f042 0201 	orr.w	r2, r2, #1
 8003684:	801a      	strh	r2, [r3, #0]
    Macro_Set_Bit(TIM2->DIER,0);
 8003686:	899a      	ldrh	r2, [r3, #12]
 8003688:	b292      	uxth	r2, r2
 800368a:	f042 0201 	orr.w	r2, r2, #1
 800368e:	819a      	strh	r2, [r3, #12]
    Macro_Set_Bit(TIM2->CCER,8);
 8003690:	8c1a      	ldrh	r2, [r3, #32]
 8003692:	b292      	uxth	r2, r2
 8003694:	f442 7280 	orr.w	r2, r2, #256	; 0x100
 8003698:	841a      	strh	r2, [r3, #32]
    Macro_Clear_Bit(TIM2->CCER,12);
 800369a:	8c1a      	ldrh	r2, [r3, #32]
 800369c:	f422 5280 	bic.w	r2, r2, #4096	; 0x1000
 80036a0:	0412      	lsls	r2, r2, #16
 80036a2:	0c12      	lsrs	r2, r2, #16
 80036a4:	841a      	strh	r2, [r3, #32]
 80036a6:	bd10      	pop	{r4, pc}
    {
        if(rx == '9')
        {
            
            freq_state=30;
            Uart1_Printf("\n>9단계\n");
 80036a8:	f24a 10f4 	movw	r0, #41460	; 0xa1f4
    if(modeState==Standard)  //기본 모드일때만 단계 변경 가능.
    {
        if(rx == '9')
        {
            
            freq_state=30;
 80036ac:	231e      	movs	r3, #30
            Uart1_Printf("\n>9단계\n");
 80036ae:	f6c0 0000 	movt	r0, #2048	; 0x800
    if(modeState==Standard)  //기본 모드일때만 단계 변경 가능.
    {
        if(rx == '9')
        {
            
            freq_state=30;
 80036b2:	6023      	str	r3, [r4, #0]
            Uart1_Printf("\n>9단계\n");
 80036b4:	f000 fbfc 	bl	8003eb0 <Uart1_Printf>
 80036b8:	e768      	b.n	800358c <Moter_Run+0x54>
            Uart1_Printf("\n>6단계\n");
        }
        else if(rx == '5')
        {
            freq_state=10000;
            Uart1_Printf("\n>5단계\n");
 80036ba:	f24a 2024 	movw	r0, #41508	; 0xa224
            freq_state=500;
            Uart1_Printf("\n>6단계\n");
        }
        else if(rx == '5')
        {
            freq_state=10000;
 80036be:	f242 7310 	movw	r3, #10000	; 0x2710
            Uart1_Printf("\n>5단계\n");
 80036c2:	f6c0 0000 	movt	r0, #2048	; 0x800
            freq_state=500;
            Uart1_Printf("\n>6단계\n");
        }
        else if(rx == '5')
        {
            freq_state=10000;
 80036c6:	6023      	str	r3, [r4, #0]
            Uart1_Printf("\n>5단계\n");
 80036c8:	f000 fbf2 	bl	8003eb0 <Uart1_Printf>
 80036cc:	e75e      	b.n	800358c <Moter_Run+0x54>
            Uart1_Printf("\n>2단계\n");
            
        }
        else if(rx == '1')
        {
            freq_state=200000;
 80036ce:	f44f 6354 	mov.w	r3, #3392	; 0xd40
            Uart1_Printf("\n>1단계\n");
 80036d2:	f24a 2054 	movw	r0, #41556	; 0xa254
            Uart1_Printf("\n>2단계\n");
            
        }
        else if(rx == '1')
        {
            freq_state=200000;
 80036d6:	f2c0 0303 	movt	r3, #3
            Uart1_Printf("\n>1단계\n");
 80036da:	f6c0 0000 	movt	r0, #2048	; 0x800
            Uart1_Printf("\n>2단계\n");
            
        }
        else if(rx == '1')
        {
            freq_state=200000;
 80036de:	6023      	str	r3, [r4, #0]
            Uart1_Printf("\n>1단계\n");
 80036e0:	f000 fbe6 	bl	8003eb0 <Uart1_Printf>
 80036e4:	e752      	b.n	800358c <Moter_Run+0x54>
        }
        else if(rx == '8')
        {
            
            freq_state=50;
            Uart1_Printf("\n>8단계\n");
 80036e6:	f24a 2000 	movw	r0, #41472	; 0xa200
            
        }
        else if(rx == '8')
        {
            
            freq_state=50;
 80036ea:	2332      	movs	r3, #50	; 0x32
            Uart1_Printf("\n>8단계\n");
 80036ec:	f6c0 0000 	movt	r0, #2048	; 0x800
            
        }
        else if(rx == '8')
        {
            
            freq_state=50;
 80036f0:	6023      	str	r3, [r4, #0]
            Uart1_Printf("\n>8단계\n");
 80036f2:	f000 fbdd 	bl	8003eb0 <Uart1_Printf>
 80036f6:	e749      	b.n	800358c <Moter_Run+0x54>
        }
        else if(rx == '7')
        {
        
            freq_state=100;
            Uart1_Printf("\n>7단계\n");
 80036f8:	f24a 200c 	movw	r0, #41484	; 0xa20c
            
        }
        else if(rx == '7')
        {
        
            freq_state=100;
 80036fc:	2364      	movs	r3, #100	; 0x64
            Uart1_Printf("\n>7단계\n");
 80036fe:	f6c0 0000 	movt	r0, #2048	; 0x800
            
        }
        else if(rx == '7')
        {
        
            freq_state=100;
 8003702:	6023      	str	r3, [r4, #0]
            Uart1_Printf("\n>7단계\n");
 8003704:	f000 fbd4 	bl	8003eb0 <Uart1_Printf>
 8003708:	e740      	b.n	800358c <Moter_Run+0x54>
        }
        else if(rx == '6')
        {

            freq_state=500;
            Uart1_Printf("\n>6단계\n");
 800370a:	f24a 2018 	movw	r0, #41496	; 0xa218
            
        }
        else if(rx == '6')
        {

            freq_state=500;
 800370e:	f44f 73fa 	mov.w	r3, #500	; 0x1f4
            Uart1_Printf("\n>6단계\n");
 8003712:	f6c0 0000 	movt	r0, #2048	; 0x800
            
        }
        else if(rx == '6')
        {

            freq_state=500;
 8003716:	6023      	str	r3, [r4, #0]
            Uart1_Printf("\n>6단계\n");
 8003718:	f000 fbca 	bl	8003eb0 <Uart1_Printf>
 800371c:	e736      	b.n	800358c <Moter_Run+0x54>
            
        }
        else if(rx == '4')
        {
            freq_state=20000;
            Uart1_Printf("\n>4단계\n");
 800371e:	f24a 2030 	movw	r0, #41520	; 0xa230
            Uart1_Printf("\n>5단계\n");
            
        }
        else if(rx == '4')
        {
            freq_state=20000;
 8003722:	f644 6320 	movw	r3, #20000	; 0x4e20
            Uart1_Printf("\n>4단계\n");
 8003726:	f6c0 0000 	movt	r0, #2048	; 0x800
            Uart1_Printf("\n>5단계\n");
            
        }
        else if(rx == '4')
        {
            freq_state=20000;
 800372a:	6023      	str	r3, [r4, #0]
            Uart1_Printf("\n>4단계\n");
 800372c:	f000 fbc0 	bl	8003eb0 <Uart1_Printf>
 8003730:	e72c      	b.n	800358c <Moter_Run+0x54>
            
        }
        else if(rx == '3')
        {
            freq_state=50000;
            Uart1_Printf("\n>3단계\n");
 8003732:	f24a 203c 	movw	r0, #41532	; 0xa23c
            Uart1_Printf("\n>4단계\n");
            
        }
        else if(rx == '3')
        {
            freq_state=50000;
 8003736:	f24c 3350 	movw	r3, #50000	; 0xc350
            Uart1_Printf("\n>3단계\n");
 800373a:	f6c0 0000 	movt	r0, #2048	; 0x800
            Uart1_Printf("\n>4단계\n");
            
        }
        else if(rx == '3')
        {
            freq_state=50000;
 800373e:	6023      	str	r3, [r4, #0]
            Uart1_Printf("\n>3단계\n");
 8003740:	f000 fbb6 	bl	8003eb0 <Uart1_Printf>
 8003744:	e722      	b.n	800358c <Moter_Run+0x54>
            
        }
        else if(rx == '2')
        {
            freq_state=100000;
 8003746:	f248 63a0 	movw	r3, #34464	; 0x86a0
            Uart1_Printf("\n>2단계\n");
 800374a:	f24a 2048 	movw	r0, #41544	; 0xa248
            Uart1_Printf("\n>3단계\n");
            
        }
        else if(rx == '2')
        {
            freq_state=100000;
 800374e:	f2c0 0301 	movt	r3, #1
            Uart1_Printf("\n>2단계\n");
 8003752:	f6c0 0000 	movt	r0, #2048	; 0x800
            Uart1_Printf("\n>3단계\n");
            
        }
        else if(rx == '2')
        {
            freq_state=100000;
 8003756:	6023      	str	r3, [r4, #0]
            Uart1_Printf("\n>2단계\n");
 8003758:	f000 fbaa 	bl	8003eb0 <Uart1_Printf>
 800375c:	e716      	b.n	800358c <Moter_Run+0x54>
 800375e:	bf00      	nop
 8003760:	00000000 	andeq	r0, r0, r0
 8003764:	41086a00 	tstmi	r8, r0, lsl #20

08003768 <Moter_Mode>:


}

void Moter_Mode(int key)
{
 8003768:	b538      	push	{r3, r4, r5, lr}
    
    
    switch(modeState)
 800376a:	f240 5480 	movw	r4, #1408	; 0x580
 800376e:	f2c2 0400 	movt	r4, #8192	; 0x2000
 8003772:	68e3      	ldr	r3, [r4, #12]


}

void Moter_Mode(int key)
{
 8003774:	4602      	mov	r2, r0
    
    
    switch(modeState)
 8003776:	2b01      	cmp	r3, #1
 8003778:	d053      	beq.n	8003822 <Moter_Mode+0xba>
 800377a:	d345      	bcc.n	8003808 <Moter_Mode+0xa0>
 800377c:	2b02      	cmp	r3, #2
 800377e:	d142      	bne.n	8003806 <Moter_Mode+0x9e>
        }
        Cds_Mode();
        break;

        case Auto:
        if(key==2)
 8003780:	2802      	cmp	r0, #2
 8003782:	f000 8096 	beq.w	80038b2 <Moter_Mode+0x14a>
}

void Auto_Mode()
{
    unsigned int k;
    i = (i + 1) % 2000000;
 8003786:	68a1      	ldr	r1, [r4, #8]
 8003788:	f64d 6383 	movw	r3, #56963	; 0xde83
 800378c:	3101      	adds	r1, #1
 800378e:	f2c4 331b 	movt	r3, #17179	; 0x431b
 8003792:	fba3 2301 	umull	r2, r3, r3, r1
 8003796:	f248 4280 	movw	r2, #33920	; 0x8480
 800379a:	f2c0 021e 	movt	r2, #30
 800379e:	0cdb      	lsrs	r3, r3, #19
 80037a0:	fb02 1313 	mls	r3, r2, r3, r1
    k=i/10; // 자동으로 1~200000까지의 주파수를 증가시킴.
 80037a4:	f64c 42cd 	movw	r2, #52429	; 0xcccd
 80037a8:	f6cc 42cc 	movt	r2, #52428	; 0xcccc
 80037ac:	fba2 1203 	umull	r1, r2, r2, r3
}

void Tim2_Freq_Generation(unsigned int freq,unsigned int duty)
{
    
    TIM2->PSC = (unsigned int)(TIMXCLK/TIM2_FREQ+0.5) - 1;
 80037b0:	f04f 4580 	mov.w	r5, #1073741824	; 0x40000000

void Auto_Mode()
{
    unsigned int k;
    i = (i + 1) % 2000000;
    k=i/10; // 자동으로 1~200000까지의 주파수를 증가시킴.
 80037b4:	08d0      	lsrs	r0, r2, #3
}

void Tim2_Freq_Generation(unsigned int freq,unsigned int duty)
{
    
    TIM2->PSC = (unsigned int)(TIMXCLK/TIM2_FREQ+0.5) - 1;
 80037b6:	f240 1167 	movw	r1, #359	; 0x167
}

void Auto_Mode()
{
    unsigned int k;
    i = (i + 1) % 2000000;
 80037ba:	60a3      	str	r3, [r4, #8]

void Tim2_Freq_Generation(unsigned int freq,unsigned int duty)
{
    
    TIM2->PSC = (unsigned int)(TIMXCLK/TIM2_FREQ+0.5) - 1;
    TIM2->ARR = TIM2_FREQ/freq;
 80037bc:	3001      	adds	r0, #1
}

void Tim2_Freq_Generation(unsigned int freq,unsigned int duty)
{
    
    TIM2->PSC = (unsigned int)(TIMXCLK/TIM2_FREQ+0.5) - 1;
 80037be:	8529      	strh	r1, [r5, #40]	; 0x28
    TIM2->ARR = TIM2_FREQ/freq;
 80037c0:	f005 fd72 	bl	80092a8 <__aeabi_ui2d>
 80037c4:	4602      	mov	r2, r0
 80037c6:	460b      	mov	r3, r1
 80037c8:	a145      	add	r1, pc, #276	; (adr r1, 80038e0 <Moter_Mode+0x178>)
 80037ca:	e9d1 0100 	ldrd	r0, r1, [r1]
 80037ce:	f005 ff0b 	bl	80095e8 <__aeabi_ddiv>
 80037d2:	f006 f8a1 	bl	8009918 <__aeabi_d2uiz>
 80037d6:	b280      	uxth	r0, r0
 80037d8:	85a8      	strh	r0, [r5, #44]	; 0x2c
    TIM2->CCR3 = TIM2->ARR/duty;
 80037da:	8daa      	ldrh	r2, [r5, #44]	; 0x2c
    TIM2->CCR4 = TIM2->ARR/duty;
    
    Macro_Set_Bit(TIM2->DIER,0);
    
    Macro_Set_Bit(TIM2->EGR,0);
    TIM2->CR1 = (1<<4)|(0<<3)|(1<<0);
 80037dc:	2311      	movs	r3, #17
void Tim2_Freq_Generation(unsigned int freq,unsigned int duty)
{
    
    TIM2->PSC = (unsigned int)(TIMXCLK/TIM2_FREQ+0.5) - 1;
    TIM2->ARR = TIM2_FREQ/freq;
    TIM2->CCR3 = TIM2->ARR/duty;
 80037de:	f3c2 024e 	ubfx	r2, r2, #1, #15
 80037e2:	87aa      	strh	r2, [r5, #60]	; 0x3c
    TIM2->CCR4 = TIM2->ARR/duty;
 80037e4:	8daa      	ldrh	r2, [r5, #44]	; 0x2c
 80037e6:	f3c2 024e 	ubfx	r2, r2, #1, #15
 80037ea:	f8a5 2040 	strh.w	r2, [r5, #64]	; 0x40
    
    Macro_Set_Bit(TIM2->DIER,0);
 80037ee:	89aa      	ldrh	r2, [r5, #12]
 80037f0:	b292      	uxth	r2, r2
 80037f2:	f042 0201 	orr.w	r2, r2, #1
 80037f6:	81aa      	strh	r2, [r5, #12]
    
    Macro_Set_Bit(TIM2->EGR,0);
 80037f8:	8aaa      	ldrh	r2, [r5, #20]
 80037fa:	b292      	uxth	r2, r2
 80037fc:	f042 0201 	orr.w	r2, r2, #1
 8003800:	82aa      	strh	r2, [r5, #20]
    TIM2->CR1 = (1<<4)|(0<<3)|(1<<0);
 8003802:	802b      	strh	r3, [r5, #0]
 8003804:	bd38      	pop	{r3, r4, r5, pc}
 8003806:	bd38      	pop	{r3, r4, r5, pc}
    
    
    switch(modeState)
    {
        case Standard:
        if(key==1)
 8003808:	2801      	cmp	r0, #1
 800380a:	d05d      	beq.n	80038c8 <Moter_Mode+0x160>
        {
            modeState=Cds;
            Uart1_Printf("\n>Cds모드\n");
            Adc_Cds_Start();
        }
        else if(key==2)
 800380c:	2802      	cmp	r0, #2
 800380e:	d1f9      	bne.n	8003804 <Moter_Mode+0x9c>
        {
            modeState=Auto;
            Uart1_Printf("\n>자동모드\n");
 8003810:	f24a 2070 	movw	r0, #41584	; 0xa270
            Uart1_Printf("\n>Cds모드\n");
            Adc_Cds_Start();
        }
        else if(key==2)
        {
            modeState=Auto;
 8003814:	60e2      	str	r2, [r4, #12]
            Uart1_Printf("\n>자동모드\n");
 8003816:	f6c0 0000 	movt	r0, #2048	; 0x800
            Uart1_Printf("\n>기본모드\n");
        }
        Auto_Mode();
        break;
    }
}
 800381a:	e8bd 4038 	ldmia.w	sp!, {r3, r4, r5, lr}
            Adc_Cds_Start();
        }
        else if(key==2)
        {
            modeState=Auto;
            Uart1_Printf("\n>자동모드\n");
 800381e:	f000 bb47 	b.w	8003eb0 <Uart1_Printf>
        }
        
        break;

        case Cds:
        if(key==1)
 8003822:	2801      	cmp	r0, #1
 8003824:	d03a      	beq.n	800389c <Moter_Mode+0x134>
        break;
    }
}
void Cds_Mode()
{
    while(!(Adc_Cds_Get_Status()!=0)); 
 8003826:	f7ff fc61 	bl	80030ec <Adc_Cds_Get_Status>
 800382a:	2800      	cmp	r0, #0
 800382c:	d0fb      	beq.n	8003826 <Moter_Mode+0xbe>
    Tim2_Freq_Generation((unsigned int)Adc_Get_Data()*100,2);
 800382e:	f7ff fc6f 	bl	8003110 <Adc_Get_Data>
}

void Tim2_Freq_Generation(unsigned int freq,unsigned int duty)
{
    
    TIM2->PSC = (unsigned int)(TIMXCLK/TIM2_FREQ+0.5) - 1;
 8003832:	f04f 4480 	mov.w	r4, #1073741824	; 0x40000000
    }
}
void Cds_Mode()
{
    while(!(Adc_Cds_Get_Status()!=0)); 
    Tim2_Freq_Generation((unsigned int)Adc_Get_Data()*100,2);
 8003836:	2264      	movs	r2, #100	; 0x64
}

void Tim2_Freq_Generation(unsigned int freq,unsigned int duty)
{
    
    TIM2->PSC = (unsigned int)(TIMXCLK/TIM2_FREQ+0.5) - 1;
 8003838:	f240 1367 	movw	r3, #359	; 0x167
 800383c:	8523      	strh	r3, [r4, #40]	; 0x28
    TIM2->ARR = TIM2_FREQ/freq;
 800383e:	fb02 f000 	mul.w	r0, r2, r0
 8003842:	f005 fd31 	bl	80092a8 <__aeabi_ui2d>
 8003846:	4602      	mov	r2, r0
 8003848:	460b      	mov	r3, r1
 800384a:	a125      	add	r1, pc, #148	; (adr r1, 80038e0 <Moter_Mode+0x178>)
 800384c:	e9d1 0100 	ldrd	r0, r1, [r1]
 8003850:	f005 feca 	bl	80095e8 <__aeabi_ddiv>
 8003854:	f006 f860 	bl	8009918 <__aeabi_d2uiz>
 8003858:	b280      	uxth	r0, r0
 800385a:	85a0      	strh	r0, [r4, #44]	; 0x2c
    TIM2->CCR3 = TIM2->ARR/duty;
 800385c:	8da2      	ldrh	r2, [r4, #44]	; 0x2c
    TIM2->CCR4 = TIM2->ARR/duty;
    
    Macro_Set_Bit(TIM2->DIER,0);
    
    Macro_Set_Bit(TIM2->EGR,0);
    TIM2->CR1 = (1<<4)|(0<<3)|(1<<0);
 800385e:	2311      	movs	r3, #17
void Tim2_Freq_Generation(unsigned int freq,unsigned int duty)
{
    
    TIM2->PSC = (unsigned int)(TIMXCLK/TIM2_FREQ+0.5) - 1;
    TIM2->ARR = TIM2_FREQ/freq;
    TIM2->CCR3 = TIM2->ARR/duty;
 8003860:	f3c2 024e 	ubfx	r2, r2, #1, #15
 8003864:	87a2      	strh	r2, [r4, #60]	; 0x3c
    TIM2->CCR4 = TIM2->ARR/duty;
 8003866:	8da2      	ldrh	r2, [r4, #44]	; 0x2c
 8003868:	f3c2 024e 	ubfx	r2, r2, #1, #15
 800386c:	f8a4 2040 	strh.w	r2, [r4, #64]	; 0x40
    
    Macro_Set_Bit(TIM2->DIER,0);
 8003870:	89a2      	ldrh	r2, [r4, #12]
 8003872:	b292      	uxth	r2, r2
 8003874:	f042 0201 	orr.w	r2, r2, #1
 8003878:	81a2      	strh	r2, [r4, #12]
    
    Macro_Set_Bit(TIM2->EGR,0);
 800387a:	8aa2      	ldrh	r2, [r4, #20]
 800387c:	b292      	uxth	r2, r2
 800387e:	f042 0201 	orr.w	r2, r2, #1
 8003882:	82a2      	strh	r2, [r4, #20]
    TIM2->CR1 = (1<<4)|(0<<3)|(1<<0);
 8003884:	8023      	strh	r3, [r4, #0]
}
void Cds_Mode()
{
    while(!(Adc_Cds_Get_Status()!=0)); 
    Tim2_Freq_Generation((unsigned int)Adc_Get_Data()*100,2);
    Uart1_Printf("\n>%X\n",Adc_Get_Data());
 8003886:	f7ff fc43 	bl	8003110 <Adc_Get_Data>
            Uart1_Printf("\n>기본모드\n");
        }
        Auto_Mode();
        break;
    }
}
 800388a:	e8bd 4038 	ldmia.w	sp!, {r3, r4, r5, lr}
void Cds_Mode()
{
    while(!(Adc_Cds_Get_Status()!=0)); 
    Tim2_Freq_Generation((unsigned int)Adc_Get_Data()*100,2);
    Uart1_Printf("\n>%X\n",Adc_Get_Data());
 800388e:	4601      	mov	r1, r0
 8003890:	f24a 2090 	movw	r0, #41616	; 0xa290
 8003894:	f6c0 0000 	movt	r0, #2048	; 0x800
 8003898:	f000 bb0a 	b.w	8003eb0 <Uart1_Printf>

        case Cds:
        if(key==1)
        {
            modeState=Standard;
            Uart1_Printf("\n>기본모드\n");
 800389c:	f24a 2080 	movw	r0, #41600	; 0xa280
        break;

        case Cds:
        if(key==1)
        {
            modeState=Standard;
 80038a0:	2300      	movs	r3, #0
            Uart1_Printf("\n>기본모드\n");
 80038a2:	f6c0 0000 	movt	r0, #2048	; 0x800
        break;

        case Cds:
        if(key==1)
        {
            modeState=Standard;
 80038a6:	60e3      	str	r3, [r4, #12]
            Uart1_Printf("\n>기본모드\n");
 80038a8:	f000 fb02 	bl	8003eb0 <Uart1_Printf>
            Adc_Cds_Stop();
 80038ac:	f7ff fc10 	bl	80030d0 <Adc_Cds_Stop>
 80038b0:	e7b9      	b.n	8003826 <Moter_Mode+0xbe>
        if(key==2)
        {
            modeState=Standard;
            k=0;
            i=0;
            Uart1_Printf("\n>기본모드\n");
 80038b2:	f24a 2080 	movw	r0, #41600	; 0xa280
        break;

        case Auto:
        if(key==2)
        {
            modeState=Standard;
 80038b6:	2300      	movs	r3, #0
            k=0;
            i=0;
            Uart1_Printf("\n>기본모드\n");
 80038b8:	f6c0 0000 	movt	r0, #2048	; 0x800
        break;

        case Auto:
        if(key==2)
        {
            modeState=Standard;
 80038bc:	60e3      	str	r3, [r4, #12]
            k=0;
 80038be:	6063      	str	r3, [r4, #4]
            i=0;
 80038c0:	60a3      	str	r3, [r4, #8]
            Uart1_Printf("\n>기본모드\n");
 80038c2:	f000 faf5 	bl	8003eb0 <Uart1_Printf>
 80038c6:	e75e      	b.n	8003786 <Moter_Mode+0x1e>
    {
        case Standard:
        if(key==1)
        {
            modeState=Cds;
            Uart1_Printf("\n>Cds모드\n");
 80038c8:	f24a 2060 	movw	r0, #41568	; 0xa260
 80038cc:	f6c0 0000 	movt	r0, #2048	; 0x800
    switch(modeState)
    {
        case Standard:
        if(key==1)
        {
            modeState=Cds;
 80038d0:	60e2      	str	r2, [r4, #12]
            Uart1_Printf("\n>Cds모드\n");
 80038d2:	f000 faed 	bl	8003eb0 <Uart1_Printf>
            Uart1_Printf("\n>기본모드\n");
        }
        Auto_Mode();
        break;
    }
}
 80038d6:	e8bd 4038 	ldmia.w	sp!, {r3, r4, r5, lr}
        case Standard:
        if(key==1)
        {
            modeState=Cds;
            Uart1_Printf("\n>Cds모드\n");
            Adc_Cds_Start();
 80038da:	f7ff bbeb 	b.w	80030b4 <Adc_Cds_Start>
 80038de:	bf00      	nop
 80038e0:	00000000 	andeq	r0, r0, r0
 80038e4:	41086a00 	tstmi	r8, r0, lsl #20

080038e8 <Cds_Mode>:
        Auto_Mode();
        break;
    }
}
void Cds_Mode()
{
 80038e8:	b510      	push	{r4, lr}
    while(!(Adc_Cds_Get_Status()!=0)); 
 80038ea:	f7ff fbff 	bl	80030ec <Adc_Cds_Get_Status>
 80038ee:	2800      	cmp	r0, #0
 80038f0:	d0fb      	beq.n	80038ea <Cds_Mode+0x2>
    Tim2_Freq_Generation((unsigned int)Adc_Get_Data()*100,2);
 80038f2:	f7ff fc0d 	bl	8003110 <Adc_Get_Data>
}

void Tim2_Freq_Generation(unsigned int freq,unsigned int duty)
{
    
    TIM2->PSC = (unsigned int)(TIMXCLK/TIM2_FREQ+0.5) - 1;
 80038f6:	f04f 4480 	mov.w	r4, #1073741824	; 0x40000000
    }
}
void Cds_Mode()
{
    while(!(Adc_Cds_Get_Status()!=0)); 
    Tim2_Freq_Generation((unsigned int)Adc_Get_Data()*100,2);
 80038fa:	2264      	movs	r2, #100	; 0x64
}

void Tim2_Freq_Generation(unsigned int freq,unsigned int duty)
{
    
    TIM2->PSC = (unsigned int)(TIMXCLK/TIM2_FREQ+0.5) - 1;
 80038fc:	f240 1367 	movw	r3, #359	; 0x167
 8003900:	8523      	strh	r3, [r4, #40]	; 0x28
    TIM2->ARR = TIM2_FREQ/freq;
 8003902:	fb02 f000 	mul.w	r0, r2, r0
 8003906:	f005 fccf 	bl	80092a8 <__aeabi_ui2d>
 800390a:	4602      	mov	r2, r0
 800390c:	460b      	mov	r3, r1
 800390e:	a114      	add	r1, pc, #80	; (adr r1, 8003960 <Cds_Mode+0x78>)
 8003910:	e9d1 0100 	ldrd	r0, r1, [r1]
 8003914:	f005 fe68 	bl	80095e8 <__aeabi_ddiv>
 8003918:	f005 fffe 	bl	8009918 <__aeabi_d2uiz>
 800391c:	b280      	uxth	r0, r0
 800391e:	85a0      	strh	r0, [r4, #44]	; 0x2c
    TIM2->CCR3 = TIM2->ARR/duty;
 8003920:	8da2      	ldrh	r2, [r4, #44]	; 0x2c
    TIM2->CCR4 = TIM2->ARR/duty;
    
    Macro_Set_Bit(TIM2->DIER,0);
    
    Macro_Set_Bit(TIM2->EGR,0);
    TIM2->CR1 = (1<<4)|(0<<3)|(1<<0);
 8003922:	2311      	movs	r3, #17
void Tim2_Freq_Generation(unsigned int freq,unsigned int duty)
{
    
    TIM2->PSC = (unsigned int)(TIMXCLK/TIM2_FREQ+0.5) - 1;
    TIM2->ARR = TIM2_FREQ/freq;
    TIM2->CCR3 = TIM2->ARR/duty;
 8003924:	f3c2 024e 	ubfx	r2, r2, #1, #15
 8003928:	87a2      	strh	r2, [r4, #60]	; 0x3c
    TIM2->CCR4 = TIM2->ARR/duty;
 800392a:	8da2      	ldrh	r2, [r4, #44]	; 0x2c
 800392c:	f3c2 024e 	ubfx	r2, r2, #1, #15
 8003930:	f8a4 2040 	strh.w	r2, [r4, #64]	; 0x40
    
    Macro_Set_Bit(TIM2->DIER,0);
 8003934:	89a2      	ldrh	r2, [r4, #12]
 8003936:	b292      	uxth	r2, r2
 8003938:	f042 0201 	orr.w	r2, r2, #1
 800393c:	81a2      	strh	r2, [r4, #12]
    
    Macro_Set_Bit(TIM2->EGR,0);
 800393e:	8aa2      	ldrh	r2, [r4, #20]
 8003940:	b292      	uxth	r2, r2
 8003942:	f042 0201 	orr.w	r2, r2, #1
 8003946:	82a2      	strh	r2, [r4, #20]
    TIM2->CR1 = (1<<4)|(0<<3)|(1<<0);
 8003948:	8023      	strh	r3, [r4, #0]
}
void Cds_Mode()
{
    while(!(Adc_Cds_Get_Status()!=0)); 
    Tim2_Freq_Generation((unsigned int)Adc_Get_Data()*100,2);
    Uart1_Printf("\n>%X\n",Adc_Get_Data());
 800394a:	f7ff fbe1 	bl	8003110 <Adc_Get_Data>
    
}
 800394e:	e8bd 4010 	ldmia.w	sp!, {r4, lr}
}
void Cds_Mode()
{
    while(!(Adc_Cds_Get_Status()!=0)); 
    Tim2_Freq_Generation((unsigned int)Adc_Get_Data()*100,2);
    Uart1_Printf("\n>%X\n",Adc_Get_Data());
 8003952:	4601      	mov	r1, r0
 8003954:	f24a 2090 	movw	r0, #41616	; 0xa290
 8003958:	f6c0 0000 	movt	r0, #2048	; 0x800
 800395c:	f000 baa8 	b.w	8003eb0 <Uart1_Printf>
 8003960:	00000000 	andeq	r0, r0, r0
 8003964:	41086a00 	tstmi	r8, r0, lsl #20

08003968 <Auto_Mode>:
    
}

void Auto_Mode()
{
 8003968:	b538      	push	{r3, r4, r5, lr}
    unsigned int k;
    i = (i + 1) % 2000000;
 800396a:	f240 5380 	movw	r3, #1408	; 0x580
 800396e:	f2c2 0300 	movt	r3, #8192	; 0x2000
 8003972:	6898      	ldr	r0, [r3, #8]
 8003974:	f64d 6283 	movw	r2, #56963	; 0xde83
 8003978:	3001      	adds	r0, #1
 800397a:	f2c4 321b 	movt	r2, #17179	; 0x431b
 800397e:	fba2 1200 	umull	r1, r2, r2, r0
 8003982:	f248 4180 	movw	r1, #33920	; 0x8480
 8003986:	f2c0 011e 	movt	r1, #30
 800398a:	0cd2      	lsrs	r2, r2, #19
 800398c:	fb01 0212 	mls	r2, r1, r2, r0
    k=i/10; // 자동으로 1~200000까지의 주파수를 증가시킴.
 8003990:	f64c 41cd 	movw	r1, #52429	; 0xcccd
 8003994:	f6cc 41cc 	movt	r1, #52428	; 0xcccc
 8003998:	fba1 0102 	umull	r0, r1, r1, r2
}

void Tim2_Freq_Generation(unsigned int freq,unsigned int duty)
{
    
    TIM2->PSC = (unsigned int)(TIMXCLK/TIM2_FREQ+0.5) - 1;
 800399c:	f04f 4480 	mov.w	r4, #1073741824	; 0x40000000

void Auto_Mode()
{
    unsigned int k;
    i = (i + 1) % 2000000;
    k=i/10; // 자동으로 1~200000까지의 주파수를 증가시킴.
 80039a0:	08c8      	lsrs	r0, r1, #3
}

void Tim2_Freq_Generation(unsigned int freq,unsigned int duty)
{
    
    TIM2->PSC = (unsigned int)(TIMXCLK/TIM2_FREQ+0.5) - 1;
 80039a2:	f240 1567 	movw	r5, #359	; 0x167
}

void Auto_Mode()
{
    unsigned int k;
    i = (i + 1) % 2000000;
 80039a6:	609a      	str	r2, [r3, #8]

void Tim2_Freq_Generation(unsigned int freq,unsigned int duty)
{
    
    TIM2->PSC = (unsigned int)(TIMXCLK/TIM2_FREQ+0.5) - 1;
    TIM2->ARR = TIM2_FREQ/freq;
 80039a8:	3001      	adds	r0, #1
}

void Tim2_Freq_Generation(unsigned int freq,unsigned int duty)
{
    
    TIM2->PSC = (unsigned int)(TIMXCLK/TIM2_FREQ+0.5) - 1;
 80039aa:	8525      	strh	r5, [r4, #40]	; 0x28
    TIM2->ARR = TIM2_FREQ/freq;
 80039ac:	f005 fc7c 	bl	80092a8 <__aeabi_ui2d>
 80039b0:	4602      	mov	r2, r0
 80039b2:	460b      	mov	r3, r1
 80039b4:	a110      	add	r1, pc, #64	; (adr r1, 80039f8 <Auto_Mode+0x90>)
 80039b6:	e9d1 0100 	ldrd	r0, r1, [r1]
 80039ba:	f005 fe15 	bl	80095e8 <__aeabi_ddiv>
 80039be:	f005 ffab 	bl	8009918 <__aeabi_d2uiz>
 80039c2:	b280      	uxth	r0, r0
 80039c4:	85a0      	strh	r0, [r4, #44]	; 0x2c
    TIM2->CCR3 = TIM2->ARR/duty;
 80039c6:	8da2      	ldrh	r2, [r4, #44]	; 0x2c
    TIM2->CCR4 = TIM2->ARR/duty;
    
    Macro_Set_Bit(TIM2->DIER,0);
    
    Macro_Set_Bit(TIM2->EGR,0);
    TIM2->CR1 = (1<<4)|(0<<3)|(1<<0);
 80039c8:	2311      	movs	r3, #17
void Tim2_Freq_Generation(unsigned int freq,unsigned int duty)
{
    
    TIM2->PSC = (unsigned int)(TIMXCLK/TIM2_FREQ+0.5) - 1;
    TIM2->ARR = TIM2_FREQ/freq;
    TIM2->CCR3 = TIM2->ARR/duty;
 80039ca:	f3c2 024e 	ubfx	r2, r2, #1, #15
 80039ce:	87a2      	strh	r2, [r4, #60]	; 0x3c
    TIM2->CCR4 = TIM2->ARR/duty;
 80039d0:	8da2      	ldrh	r2, [r4, #44]	; 0x2c
 80039d2:	f3c2 024e 	ubfx	r2, r2, #1, #15
 80039d6:	f8a4 2040 	strh.w	r2, [r4, #64]	; 0x40
    
    Macro_Set_Bit(TIM2->DIER,0);
 80039da:	89a2      	ldrh	r2, [r4, #12]
 80039dc:	b292      	uxth	r2, r2
 80039de:	f042 0201 	orr.w	r2, r2, #1
 80039e2:	81a2      	strh	r2, [r4, #12]
    
    Macro_Set_Bit(TIM2->EGR,0);
 80039e4:	8aa2      	ldrh	r2, [r4, #20]
 80039e6:	b292      	uxth	r2, r2
 80039e8:	f042 0201 	orr.w	r2, r2, #1
 80039ec:	82a2      	strh	r2, [r4, #20]
    TIM2->CR1 = (1<<4)|(0<<3)|(1<<0);
 80039ee:	8023      	strh	r3, [r4, #0]
 80039f0:	bd38      	pop	{r3, r4, r5, pc}
 80039f2:	bf00      	nop
 80039f4:	f3af 8000 	nop.w
 80039f8:	00000000 	andeq	r0, r0, r0
 80039fc:	41086a00 	tstmi	r8, r0, lsl #20

08003a00 <_sbrk>:
#include "device_driver.h"

char * _sbrk(int inc)
{
 8003a00:	b410      	push	{r4}
	static char * heap = (char *)0;

	char * prevHeap;
	char * nextHeap;

	if(heap == (char *)0) heap = (char *)HEAP_BASE;
 8003a02:	f240 5390 	movw	r3, #1424	; 0x590
 8003a06:	f2c2 0300 	movt	r3, #8192	; 0x2000
 8003a0a:	6819      	ldr	r1, [r3, #0]
#include "device_driver.h"

char * _sbrk(int inc)
{
 8003a0c:	4602      	mov	r2, r0
	static char * heap = (char *)0;

	char * prevHeap;
	char * nextHeap;

	if(heap == (char *)0) heap = (char *)HEAP_BASE;
 8003a0e:	b181      	cbz	r1, 8003a32 <_sbrk+0x32>
 8003a10:	4c0b      	ldr	r4, [pc, #44]	; (8003a40 <_sbrk+0x40>)
 8003a12:	4608      	mov	r0, r1
 8003a14:	f024 0107 	bic.w	r1, r4, #7

	prevHeap = heap;
	nextHeap = (char *)((((unsigned int)heap + inc) + 0x7) & ~0x7);
 8003a18:	3207      	adds	r2, #7
 8003a1a:	4402      	add	r2, r0
 8003a1c:	f022 0207 	bic.w	r2, r2, #7

	if((unsigned int)nextHeap >= HEAP_LIMIT) return (char *)0;
 8003a20:	f501 5180 	add.w	r1, r1, #4096	; 0x1000
 8003a24:	428a      	cmp	r2, r1

	heap = nextHeap;
 8003a26:	bf34      	ite	cc
 8003a28:	601a      	strcc	r2, [r3, #0]
	if(heap == (char *)0) heap = (char *)HEAP_BASE;

	prevHeap = heap;
	nextHeap = (char *)((((unsigned int)heap + inc) + 0x7) & ~0x7);

	if((unsigned int)nextHeap >= HEAP_LIMIT) return (char *)0;
 8003a2a:	2000      	movcs	r0, #0

	heap = nextHeap;
	return prevHeap;
}
 8003a2c:	f85d 4b04 	ldr.w	r4, [sp], #4
 8003a30:	4770      	bx	lr
	static char * heap = (char *)0;

	char * prevHeap;
	char * nextHeap;

	if(heap == (char *)0) heap = (char *)HEAP_BASE;
 8003a32:	4903      	ldr	r1, [pc, #12]	; (8003a40 <_sbrk+0x40>)
 8003a34:	f021 0107 	bic.w	r1, r1, #7
 8003a38:	6019      	str	r1, [r3, #0]
 8003a3a:	4608      	mov	r0, r1
 8003a3c:	e7ec      	b.n	8003a18 <_sbrk+0x18>
 8003a3e:	bf00      	nop
 8003a40:	200005db 	ldrdcs	r0, [r0], -fp
 8003a44:	00000000 	andeq	r0, r0, r0

08003a48 <SysTick_Run>:
#include "device_driver.h"

void SysTick_Run(unsigned int msec)
{
 8003a48:	b538      	push	{r3, r4, r5, lr}
	SysTick->CTRL = (0<<2)+(0<<1)+(0<<0);
 8003a4a:	f24e 0410 	movw	r4, #57360	; 0xe010
 8003a4e:	f2ce 0400 	movt	r4, #57344	; 0xe000
 8003a52:	2500      	movs	r5, #0
 8003a54:	6025      	str	r5, [r4, #0]
	SysTick->LOAD = (unsigned int)((HCLK/(8.*1000.))*msec+0.5);
 8003a56:	f005 fc27 	bl	80092a8 <__aeabi_ui2d>
 8003a5a:	a30b      	add	r3, pc, #44	; (adr r3, 8003a88 <SysTick_Run+0x40>)
 8003a5c:	e9d3 2300 	ldrd	r2, r3, [r3]
 8003a60:	f005 fc98 	bl	8009394 <__aeabi_dmul>
 8003a64:	2300      	movs	r3, #0
 8003a66:	f6c3 73e0 	movt	r3, #16352	; 0x3fe0
 8003a6a:	2200      	movs	r2, #0
 8003a6c:	f005 fae0 	bl	8009030 <__adddf3>
 8003a70:	f005 ff52 	bl	8009918 <__aeabi_d2uiz>
 8003a74:	6060      	str	r0, [r4, #4]
	SysTick->VAL = 0;
 8003a76:	60a5      	str	r5, [r4, #8]
	Macro_Set_Bit(SysTick->CTRL, 0);
 8003a78:	6823      	ldr	r3, [r4, #0]
 8003a7a:	f043 0301 	orr.w	r3, r3, #1
 8003a7e:	6023      	str	r3, [r4, #0]
 8003a80:	bd38      	pop	{r3, r4, r5, pc}
 8003a82:	bf00      	nop
 8003a84:	f3af 8000 	nop.w
 8003a88:	00000000 	andeq	r0, r0, r0
 8003a8c:	40c19400 	sbcmi	r9, r1, r0, lsl #8

08003a90 <SysTick_Check_Timeout>:
}

int SysTick_Check_Timeout(void)
{
	return ((SysTick->CTRL >> 16) & 0x1);
 8003a90:	f24e 0310 	movw	r3, #57360	; 0xe010
 8003a94:	f2ce 0300 	movt	r3, #57344	; 0xe000
 8003a98:	6818      	ldr	r0, [r3, #0]
}
 8003a9a:	f3c0 4000 	ubfx	r0, r0, #16, #1
 8003a9e:	4770      	bx	lr

08003aa0 <SysTick_Get_Time>:

unsigned int SysTick_Get_Time(void)
{
	return SysTick->VAL;
 8003aa0:	f24e 0310 	movw	r3, #57360	; 0xe010
 8003aa4:	f2ce 0300 	movt	r3, #57344	; 0xe000
 8003aa8:	6898      	ldr	r0, [r3, #8]
}
 8003aaa:	4770      	bx	lr

08003aac <SysTick_Get_Load_Time>:

unsigned int SysTick_Get_Load_Time(void)
{
	return SysTick->LOAD;
 8003aac:	f24e 0310 	movw	r3, #57360	; 0xe010
 8003ab0:	f2ce 0300 	movt	r3, #57344	; 0xe000
 8003ab4:	6858      	ldr	r0, [r3, #4]
}
 8003ab6:	4770      	bx	lr

08003ab8 <SysTick_Stop>:

void SysTick_Stop(void)
{
	SysTick->CTRL = 0<<0;
 8003ab8:	f24e 0310 	movw	r3, #57360	; 0xe010
 8003abc:	f2ce 0300 	movt	r3, #57344	; 0xe000
 8003ac0:	2200      	movs	r2, #0
 8003ac2:	601a      	str	r2, [r3, #0]
 8003ac4:	4770      	bx	lr
 8003ac6:	bf00      	nop

08003ac8 <TIM2_Stopwatch_Start>:

//#define TIM3_TICK           (0.125/1000000.)
//#define TIM3_FREQ           (1./TIM3_TICK)

void TIM2_Stopwatch_Start(void)
{
 8003ac8:	b430      	push	{r4, r5}
	Macro_Set_Bit(RCC->APB1ENR, 0);
 8003aca:	f44f 5280 	mov.w	r2, #4096	; 0x1000
 8003ace:	f2c4 0202 	movt	r2, #16386	; 0x4002
 8003ad2:	69d5      	ldr	r5, [r2, #28]

	TIM2->CR1 = (1<<4)|(1<<3);
 8003ad4:	f04f 4380 	mov.w	r3, #1073741824	; 0x40000000
//#define TIM3_TICK           (0.125/1000000.)
//#define TIM3_FREQ           (1./TIM3_TICK)

void TIM2_Stopwatch_Start(void)
{
	Macro_Set_Bit(RCC->APB1ENR, 0);
 8003ad8:	f045 0501 	orr.w	r5, r5, #1

	TIM2->CR1 = (1<<4)|(1<<3);
 8003adc:	2418      	movs	r4, #24
	TIM2->PSC = (unsigned int)(TIMXCLK/50000.0 + 0.5)-1;
 8003ade:	f240 509f 	movw	r0, #1439	; 0x59f
	TIM2->ARR = TIM2_MAX;
 8003ae2:	f64f 71ff 	movw	r1, #65535	; 0xffff
//#define TIM3_TICK           (0.125/1000000.)
//#define TIM3_FREQ           (1./TIM3_TICK)

void TIM2_Stopwatch_Start(void)
{
	Macro_Set_Bit(RCC->APB1ENR, 0);
 8003ae6:	61d5      	str	r5, [r2, #28]

	TIM2->CR1 = (1<<4)|(1<<3);
 8003ae8:	801c      	strh	r4, [r3, #0]
	TIM2->PSC = (unsigned int)(TIMXCLK/50000.0 + 0.5)-1;
 8003aea:	8518      	strh	r0, [r3, #40]	; 0x28
	TIM2->ARR = TIM2_MAX;
 8003aec:	8599      	strh	r1, [r3, #44]	; 0x2c

	Macro_Set_Bit(TIM2->EGR,0);
 8003aee:	8a9a      	ldrh	r2, [r3, #20]
 8003af0:	b292      	uxth	r2, r2
 8003af2:	f042 0201 	orr.w	r2, r2, #1
 8003af6:	829a      	strh	r2, [r3, #20]
	Macro_Set_Bit(TIM2->CR1, 0);
 8003af8:	881a      	ldrh	r2, [r3, #0]
 8003afa:	b292      	uxth	r2, r2
 8003afc:	f042 0201 	orr.w	r2, r2, #1
 8003b00:	801a      	strh	r2, [r3, #0]
}
 8003b02:	bc30      	pop	{r4, r5}
 8003b04:	4770      	bx	lr
 8003b06:	bf00      	nop

08003b08 <TIM2_Stopwatch_Stop>:

unsigned int TIM2_Stopwatch_Stop(void)
{
	unsigned int time;

	Macro_Clear_Bit(TIM2->CR1, 0);
 8003b08:	f04f 4280 	mov.w	r2, #1073741824	; 0x40000000
 8003b0c:	8813      	ldrh	r3, [r2, #0]
	time = (TIM2_MAX - TIM2->CNT) * TIM2_TICK;
 8003b0e:	f64f 71ec 	movw	r1, #65516	; 0xffec

unsigned int TIM2_Stopwatch_Stop(void)
{
	unsigned int time;

	Macro_Clear_Bit(TIM2->CR1, 0);
 8003b12:	f023 0301 	bic.w	r3, r3, #1
 8003b16:	041b      	lsls	r3, r3, #16
 8003b18:	0c1b      	lsrs	r3, r3, #16
 8003b1a:	8013      	strh	r3, [r2, #0]
	time = (TIM2_MAX - TIM2->CNT) * TIM2_TICK;
 8003b1c:	8c93      	ldrh	r3, [r2, #36]	; 0x24
 8003b1e:	f2c0 0113 	movt	r1, #19
 8003b22:	b29b      	uxth	r3, r3
 8003b24:	f06f 0013 	mvn.w	r0, #19
	return time;
}
 8003b28:	fb00 1003 	mla	r0, r0, r3, r1
 8003b2c:	4770      	bx	lr
 8003b2e:	bf00      	nop

08003b30 <TIM2_Delay>:
#else

/* Delay Time Extended */

void TIM2_Delay(int time)
{
 8003b30:	b470      	push	{r4, r5, r6}
	int i;
	unsigned int t = TIME2_PLS_OF_1ms * time;

	Macro_Set_Bit(RCC->APB1ENR, 0);
 8003b32:	f44f 5380 	mov.w	r3, #4096	; 0x1000
 8003b36:	f2c4 0302 	movt	r3, #16386	; 0x4002
 8003b3a:	69de      	ldr	r6, [r3, #28]

	TIM2->PSC = (unsigned int)(TIMXCLK/(double)TIM2_FREQ + 0.5)-1;
 8003b3c:	f04f 4280 	mov.w	r2, #1073741824	; 0x40000000
	TIM2->CR1 = (1<<4)|(1<<3);
 8003b40:	2418      	movs	r4, #24
	TIM2->ARR = 0xffff;
 8003b42:	f64f 71ff 	movw	r1, #65535	; 0xffff
void TIM2_Delay(int time)
{
	int i;
	unsigned int t = TIME2_PLS_OF_1ms * time;

	Macro_Set_Bit(RCC->APB1ENR, 0);
 8003b46:	f046 0601 	orr.w	r6, r6, #1

	TIM2->PSC = (unsigned int)(TIMXCLK/(double)TIM2_FREQ + 0.5)-1;
 8003b4a:	f240 559f 	movw	r5, #1439	; 0x59f
void TIM2_Delay(int time)
{
	int i;
	unsigned int t = TIME2_PLS_OF_1ms * time;

	Macro_Set_Bit(RCC->APB1ENR, 0);
 8003b4e:	61de      	str	r6, [r3, #28]

	TIM2->PSC = (unsigned int)(TIMXCLK/(double)TIM2_FREQ + 0.5)-1;
 8003b50:	8515      	strh	r5, [r2, #40]	; 0x28
	TIM2->CR1 = (1<<4)|(1<<3);
 8003b52:	8014      	strh	r4, [r2, #0]
	TIM2->ARR = 0xffff;
 8003b54:	8591      	strh	r1, [r2, #44]	; 0x2c
/* Delay Time Extended */

void TIM2_Delay(int time)
{
	int i;
	unsigned int t = TIME2_PLS_OF_1ms * time;
 8003b56:	2132      	movs	r1, #50	; 0x32
	Macro_Set_Bit(RCC->APB1ENR, 0);

	TIM2->PSC = (unsigned int)(TIMXCLK/(double)TIM2_FREQ + 0.5)-1;
	TIM2->CR1 = (1<<4)|(1<<3);
	TIM2->ARR = 0xffff;
	Macro_Set_Bit(TIM2->EGR,0);
 8003b58:	8a93      	ldrh	r3, [r2, #20]
/* Delay Time Extended */

void TIM2_Delay(int time)
{
	int i;
	unsigned int t = TIME2_PLS_OF_1ms * time;
 8003b5a:	fb01 f000 	mul.w	r0, r1, r0
	Macro_Set_Bit(RCC->APB1ENR, 0);

	TIM2->PSC = (unsigned int)(TIMXCLK/(double)TIM2_FREQ + 0.5)-1;
	TIM2->CR1 = (1<<4)|(1<<3);
	TIM2->ARR = 0xffff;
	Macro_Set_Bit(TIM2->EGR,0);
 8003b5e:	b29b      	uxth	r3, r3
	Macro_Set_Bit(TIM2->DIER, 0);

	for(i=0; i<(t/0xffffu); i++)
 8003b60:	f248 0401 	movw	r4, #32769	; 0x8001
	Macro_Set_Bit(RCC->APB1ENR, 0);

	TIM2->PSC = (unsigned int)(TIMXCLK/(double)TIM2_FREQ + 0.5)-1;
	TIM2->CR1 = (1<<4)|(1<<3);
	TIM2->ARR = 0xffff;
	Macro_Set_Bit(TIM2->EGR,0);
 8003b64:	f043 0301 	orr.w	r3, r3, #1
	Macro_Set_Bit(TIM2->DIER, 0);

	for(i=0; i<(t/0xffffu); i++)
 8003b68:	f2c8 0400 	movt	r4, #32768	; 0x8000
	Macro_Set_Bit(RCC->APB1ENR, 0);

	TIM2->PSC = (unsigned int)(TIMXCLK/(double)TIM2_FREQ + 0.5)-1;
	TIM2->CR1 = (1<<4)|(1<<3);
	TIM2->ARR = 0xffff;
	Macro_Set_Bit(TIM2->EGR,0);
 8003b6c:	8293      	strh	r3, [r2, #20]
	Macro_Set_Bit(TIM2->DIER, 0);

	for(i=0; i<(t/0xffffu); i++)
 8003b6e:	fba4 1400 	umull	r1, r4, r4, r0

	TIM2->PSC = (unsigned int)(TIMXCLK/(double)TIM2_FREQ + 0.5)-1;
	TIM2->CR1 = (1<<4)|(1<<3);
	TIM2->ARR = 0xffff;
	Macro_Set_Bit(TIM2->EGR,0);
	Macro_Set_Bit(TIM2->DIER, 0);
 8003b72:	8993      	ldrh	r3, [r2, #12]

	for(i=0; i<(t/0xffffu); i++)
 8003b74:	0be4      	lsrs	r4, r4, #15

	TIM2->PSC = (unsigned int)(TIMXCLK/(double)TIM2_FREQ + 0.5)-1;
	TIM2->CR1 = (1<<4)|(1<<3);
	TIM2->ARR = 0xffff;
	Macro_Set_Bit(TIM2->EGR,0);
	Macro_Set_Bit(TIM2->DIER, 0);
 8003b76:	b29b      	uxth	r3, r3
 8003b78:	f043 0301 	orr.w	r3, r3, #1
 8003b7c:	8193      	strh	r3, [r2, #12]

	for(i=0; i<(t/0xffffu); i++)
 8003b7e:	bf18      	it	ne
 8003b80:	2100      	movne	r1, #0
 8003b82:	d015      	beq.n	8003bb0 <TIM2_Delay+0x80>
	{
		Macro_Set_Bit(TIM2->EGR,0);
 8003b84:	8a93      	ldrh	r3, [r2, #20]
 8003b86:	b29b      	uxth	r3, r3
 8003b88:	f043 0301 	orr.w	r3, r3, #1
 8003b8c:	8293      	strh	r3, [r2, #20]
		Macro_Clear_Bit(TIM2->SR, 0);
 8003b8e:	8a13      	ldrh	r3, [r2, #16]
 8003b90:	f023 0301 	bic.w	r3, r3, #1
 8003b94:	041b      	lsls	r3, r3, #16
 8003b96:	0c1b      	lsrs	r3, r3, #16
 8003b98:	8213      	strh	r3, [r2, #16]
		Macro_Set_Bit(TIM2->CR1, 0);
 8003b9a:	8813      	ldrh	r3, [r2, #0]
 8003b9c:	b29b      	uxth	r3, r3
 8003b9e:	f043 0301 	orr.w	r3, r3, #1
 8003ba2:	8013      	strh	r3, [r2, #0]
		while(Macro_Check_Bit_Clear(TIM2->SR, 0));
 8003ba4:	8a13      	ldrh	r3, [r2, #16]
 8003ba6:	07dd      	lsls	r5, r3, #31
 8003ba8:	d5fc      	bpl.n	8003ba4 <TIM2_Delay+0x74>
	TIM2->CR1 = (1<<4)|(1<<3);
	TIM2->ARR = 0xffff;
	Macro_Set_Bit(TIM2->EGR,0);
	Macro_Set_Bit(TIM2->DIER, 0);

	for(i=0; i<(t/0xffffu); i++)
 8003baa:	3101      	adds	r1, #1
 8003bac:	42a1      	cmp	r1, r4
 8003bae:	d1e9      	bne.n	8003b84 <TIM2_Delay+0x54>
		Macro_Clear_Bit(TIM2->SR, 0);
		Macro_Set_Bit(TIM2->CR1, 0);
		while(Macro_Check_Bit_Clear(TIM2->SR, 0));
	}

	TIM2->ARR = t % 0xffffu;
 8003bb0:	f248 0301 	movw	r3, #32769	; 0x8001
 8003bb4:	f2c8 0300 	movt	r3, #32768	; 0x8000
 8003bb8:	fba3 2300 	umull	r2, r3, r3, r0
 8003bbc:	0bdb      	lsrs	r3, r3, #15
 8003bbe:	ebc3 4303 	rsb	r3, r3, r3, lsl #16
 8003bc2:	1ac2      	subs	r2, r0, r3
 8003bc4:	b292      	uxth	r2, r2
 8003bc6:	f04f 4380 	mov.w	r3, #1073741824	; 0x40000000
 8003bca:	859a      	strh	r2, [r3, #44]	; 0x2c
	Macro_Set_Bit(TIM2->EGR,0);
 8003bcc:	8a9a      	ldrh	r2, [r3, #20]
	Macro_Clear_Bit(TIM2->SR, 0);
	Macro_Set_Bit(TIM2->CR1, 0);
	while (Macro_Check_Bit_Clear(TIM2->SR, 0));
 8003bce:	4619      	mov	r1, r3
		Macro_Set_Bit(TIM2->CR1, 0);
		while(Macro_Check_Bit_Clear(TIM2->SR, 0));
	}

	TIM2->ARR = t % 0xffffu;
	Macro_Set_Bit(TIM2->EGR,0);
 8003bd0:	b292      	uxth	r2, r2
 8003bd2:	f042 0201 	orr.w	r2, r2, #1
 8003bd6:	829a      	strh	r2, [r3, #20]
	Macro_Clear_Bit(TIM2->SR, 0);
 8003bd8:	8a1a      	ldrh	r2, [r3, #16]
 8003bda:	f022 0201 	bic.w	r2, r2, #1
 8003bde:	0412      	lsls	r2, r2, #16
 8003be0:	0c12      	lsrs	r2, r2, #16
 8003be2:	821a      	strh	r2, [r3, #16]
	Macro_Set_Bit(TIM2->CR1, 0);
 8003be4:	881a      	ldrh	r2, [r3, #0]
 8003be6:	b292      	uxth	r2, r2
 8003be8:	f042 0201 	orr.w	r2, r2, #1
 8003bec:	801a      	strh	r2, [r3, #0]
	while (Macro_Check_Bit_Clear(TIM2->SR, 0));
 8003bee:	8a0b      	ldrh	r3, [r1, #16]
 8003bf0:	f04f 4280 	mov.w	r2, #1073741824	; 0x40000000
 8003bf4:	07db      	lsls	r3, r3, #31
 8003bf6:	d5fa      	bpl.n	8003bee <TIM2_Delay+0xbe>

	Macro_Clear_Bit(TIM2->CR1, 0);
 8003bf8:	8813      	ldrh	r3, [r2, #0]
 8003bfa:	f023 0301 	bic.w	r3, r3, #1
 8003bfe:	041b      	lsls	r3, r3, #16
 8003c00:	0c1b      	lsrs	r3, r3, #16
 8003c02:	8013      	strh	r3, [r2, #0]
	Macro_Clear_Bit(TIM2->DIER, 0);
 8003c04:	8993      	ldrh	r3, [r2, #12]
 8003c06:	f023 0301 	bic.w	r3, r3, #1
 8003c0a:	041b      	lsls	r3, r3, #16
 8003c0c:	0c1b      	lsrs	r3, r3, #16
 8003c0e:	8193      	strh	r3, [r2, #12]
}
 8003c10:	bc70      	pop	{r4, r5, r6}
 8003c12:	4770      	bx	lr

08003c14 <TIM4_Repeat>:

#endif

void TIM4_Repeat(int time)
{
 8003c14:	b430      	push	{r4, r5}
	Macro_Set_Bit(RCC->APB1ENR, 2);

	TIM4->CR1 = (1<<4)|(0<<3);
	TIM4->PSC = (unsigned int)(TIMXCLK/(double)TIM4_FREQ + 0.5)-1;
	TIM4->ARR = TIME4_PLS_OF_1ms * time - 1;
 8003c16:	eb00 0080 	add.w	r0, r0, r0, lsl #2

#endif

void TIM4_Repeat(int time)
{
	Macro_Set_Bit(RCC->APB1ENR, 2);
 8003c1a:	f44f 5280 	mov.w	r2, #4096	; 0x1000
 8003c1e:	f2c4 0202 	movt	r2, #16386	; 0x4002

	TIM4->CR1 = (1<<4)|(0<<3);
	TIM4->PSC = (unsigned int)(TIMXCLK/(double)TIM4_FREQ + 0.5)-1;
	TIM4->ARR = TIME4_PLS_OF_1ms * time - 1;
 8003c22:	eb00 0080 	add.w	r0, r0, r0, lsl #2

#endif

void TIM4_Repeat(int time)
{
	Macro_Set_Bit(RCC->APB1ENR, 2);
 8003c26:	69d5      	ldr	r5, [r2, #28]

	TIM4->CR1 = (1<<4)|(0<<3);
	TIM4->PSC = (unsigned int)(TIMXCLK/(double)TIM4_FREQ + 0.5)-1;
	TIM4->ARR = TIME4_PLS_OF_1ms * time - 1;
 8003c28:	0040      	lsls	r0, r0, #1
 8003c2a:	3801      	subs	r0, #1

void TIM4_Repeat(int time)
{
	Macro_Set_Bit(RCC->APB1ENR, 2);

	TIM4->CR1 = (1<<4)|(0<<3);
 8003c2c:	f44f 6300 	mov.w	r3, #2048	; 0x800
 8003c30:	f2c4 0300 	movt	r3, #16384	; 0x4000
 8003c34:	2410      	movs	r4, #16

#endif

void TIM4_Repeat(int time)
{
	Macro_Set_Bit(RCC->APB1ENR, 2);
 8003c36:	f045 0504 	orr.w	r5, r5, #4

	TIM4->CR1 = (1<<4)|(0<<3);
	TIM4->PSC = (unsigned int)(TIMXCLK/(double)TIM4_FREQ + 0.5)-1;
	TIM4->ARR = TIME4_PLS_OF_1ms * time - 1;
 8003c3a:	b280      	uxth	r0, r0
void TIM4_Repeat(int time)
{
	Macro_Set_Bit(RCC->APB1ENR, 2);

	TIM4->CR1 = (1<<4)|(0<<3);
	TIM4->PSC = (unsigned int)(TIMXCLK/(double)TIM4_FREQ + 0.5)-1;
 8003c3c:	f240 519f 	movw	r1, #1439	; 0x59f

#endif

void TIM4_Repeat(int time)
{
	Macro_Set_Bit(RCC->APB1ENR, 2);
 8003c40:	61d5      	str	r5, [r2, #28]

	TIM4->CR1 = (1<<4)|(0<<3);
 8003c42:	801c      	strh	r4, [r3, #0]
	TIM4->PSC = (unsigned int)(TIMXCLK/(double)TIM4_FREQ + 0.5)-1;
 8003c44:	8519      	strh	r1, [r3, #40]	; 0x28
	TIM4->ARR = TIME4_PLS_OF_1ms * time - 1;
 8003c46:	8598      	strh	r0, [r3, #44]	; 0x2c

	Macro_Set_Bit(TIM4->EGR,0);
 8003c48:	8a9a      	ldrh	r2, [r3, #20]
 8003c4a:	b292      	uxth	r2, r2
 8003c4c:	f042 0201 	orr.w	r2, r2, #1
 8003c50:	829a      	strh	r2, [r3, #20]
	Macro_Clear_Bit(TIM4->SR, 0);
 8003c52:	8a1a      	ldrh	r2, [r3, #16]
 8003c54:	f022 0201 	bic.w	r2, r2, #1
 8003c58:	40a2      	lsls	r2, r4
 8003c5a:	40e2      	lsrs	r2, r4
 8003c5c:	821a      	strh	r2, [r3, #16]
	Macro_Set_Bit(TIM4->DIER, 0);
 8003c5e:	899a      	ldrh	r2, [r3, #12]
 8003c60:	b292      	uxth	r2, r2
 8003c62:	f042 0201 	orr.w	r2, r2, #1
 8003c66:	819a      	strh	r2, [r3, #12]
	Macro_Set_Bit(TIM4->CR1, 0);
 8003c68:	881a      	ldrh	r2, [r3, #0]
 8003c6a:	b292      	uxth	r2, r2
 8003c6c:	f042 0201 	orr.w	r2, r2, #1
 8003c70:	801a      	strh	r2, [r3, #0]
}
 8003c72:	bc30      	pop	{r4, r5}
 8003c74:	4770      	bx	lr
 8003c76:	bf00      	nop

08003c78 <TIM4_Check_Timeout>:

int TIM4_Check_Timeout(void)
{
	if(Macro_Check_Bit_Set(TIM4->SR, 0))
 8003c78:	f44f 6300 	mov.w	r3, #2048	; 0x800
 8003c7c:	f2c4 0300 	movt	r3, #16384	; 0x4000
 8003c80:	8a18      	ldrh	r0, [r3, #16]
 8003c82:	f010 0001 	ands.w	r0, r0, #1
 8003c86:	d006      	beq.n	8003c96 <TIM4_Check_Timeout+0x1e>
	{
		Macro_Clear_Bit(TIM4->SR, 0);
 8003c88:	8a1a      	ldrh	r2, [r3, #16]
		return 1;
 8003c8a:	2001      	movs	r0, #1

int TIM4_Check_Timeout(void)
{
	if(Macro_Check_Bit_Set(TIM4->SR, 0))
	{
		Macro_Clear_Bit(TIM4->SR, 0);
 8003c8c:	f022 0201 	bic.w	r2, r2, #1
 8003c90:	0412      	lsls	r2, r2, #16
 8003c92:	0c12      	lsrs	r2, r2, #16
 8003c94:	821a      	strh	r2, [r3, #16]
	}
	else
	{
		return 0;
	}
}
 8003c96:	4770      	bx	lr

08003c98 <TIM4_Stop>:

void TIM4_Stop(void)
{
	Macro_Clear_Bit(TIM4->CR1, 0);
 8003c98:	f44f 6300 	mov.w	r3, #2048	; 0x800
 8003c9c:	f2c4 0300 	movt	r3, #16384	; 0x4000
 8003ca0:	881a      	ldrh	r2, [r3, #0]
 8003ca2:	f022 0201 	bic.w	r2, r2, #1
 8003ca6:	0412      	lsls	r2, r2, #16
 8003ca8:	0c12      	lsrs	r2, r2, #16
 8003caa:	801a      	strh	r2, [r3, #0]
	Macro_Clear_Bit(TIM4->DIER, 0);
 8003cac:	899a      	ldrh	r2, [r3, #12]
 8003cae:	f022 0201 	bic.w	r2, r2, #1
 8003cb2:	0412      	lsls	r2, r2, #16
 8003cb4:	0c12      	lsrs	r2, r2, #16
 8003cb6:	819a      	strh	r2, [r3, #12]
 8003cb8:	4770      	bx	lr
 8003cba:	bf00      	nop

08003cbc <TIM4_Change_Value>:
}

void TIM4_Change_Value(int time)
{
	TIM4->ARR = TIME4_PLS_OF_1ms * time;
 8003cbc:	eb00 0080 	add.w	r0, r0, r0, lsl #2
 8003cc0:	eb00 0080 	add.w	r0, r0, r0, lsl #2
 8003cc4:	0040      	lsls	r0, r0, #1
 8003cc6:	f44f 6300 	mov.w	r3, #2048	; 0x800
 8003cca:	b280      	uxth	r0, r0
 8003ccc:	f2c4 0300 	movt	r3, #16384	; 0x4000
 8003cd0:	8598      	strh	r0, [r3, #44]	; 0x2c
 8003cd2:	4770      	bx	lr

08003cd4 <TIM3_Out_Init>:
#define TIM3_TICK	  		(1000000/TIM3_FREQ)	// usec
#define TIME3_PLS_OF_1ms  	(1000/TIM3_TICK)

void TIM3_Out_Init(void)
{
	Macro_Set_Bit(RCC->APB1ENR, 1);
 8003cd4:	f44f 5380 	mov.w	r3, #4096	; 0x1000
 8003cd8:	f2c4 0302 	movt	r3, #16386	; 0x4002
 8003cdc:	69da      	ldr	r2, [r3, #28]
	Macro_Set_Bit(RCC->APB2ENR, 3);
	Macro_Write_Block(GPIOB->CRL,0xf,0xb,0);
 8003cde:	f44f 6140 	mov.w	r1, #3072	; 0xc00
#define TIM3_TICK	  		(1000000/TIM3_FREQ)	// usec
#define TIME3_PLS_OF_1ms  	(1000/TIM3_TICK)

void TIM3_Out_Init(void)
{
	Macro_Set_Bit(RCC->APB1ENR, 1);
 8003ce2:	f042 0202 	orr.w	r2, r2, #2
 8003ce6:	61da      	str	r2, [r3, #28]
	Macro_Set_Bit(RCC->APB2ENR, 3);
 8003ce8:	699a      	ldr	r2, [r3, #24]
	Macro_Write_Block(GPIOB->CRL,0xf,0xb,0);
 8003cea:	f2c4 0101 	movt	r1, #16385	; 0x4001
#define TIME3_PLS_OF_1ms  	(1000/TIM3_TICK)

void TIM3_Out_Init(void)
{
	Macro_Set_Bit(RCC->APB1ENR, 1);
	Macro_Set_Bit(RCC->APB2ENR, 3);
 8003cee:	f042 0208 	orr.w	r2, r2, #8
 8003cf2:	619a      	str	r2, [r3, #24]
	Macro_Write_Block(GPIOB->CRL,0xf,0xb,0);
 8003cf4:	680b      	ldr	r3, [r1, #0]
	Macro_Write_Block(TIM3->CCMR2,0x7,0x6,4);
 8003cf6:	f44f 6280 	mov.w	r2, #1024	; 0x400

void TIM3_Out_Init(void)
{
	Macro_Set_Bit(RCC->APB1ENR, 1);
	Macro_Set_Bit(RCC->APB2ENR, 3);
	Macro_Write_Block(GPIOB->CRL,0xf,0xb,0);
 8003cfa:	f023 030f 	bic.w	r3, r3, #15
 8003cfe:	f043 030b 	orr.w	r3, r3, #11
 8003d02:	600b      	str	r3, [r1, #0]
	Macro_Write_Block(TIM3->CCMR2,0x7,0x6,4);
 8003d04:	f2c4 0200 	movt	r2, #16384	; 0x4000
 8003d08:	8b93      	ldrh	r3, [r2, #28]
	TIM3->CCER = (0<<9)|(1<<8);
 8003d0a:	f44f 7180 	mov.w	r1, #256	; 0x100
void TIM3_Out_Init(void)
{
	Macro_Set_Bit(RCC->APB1ENR, 1);
	Macro_Set_Bit(RCC->APB2ENR, 3);
	Macro_Write_Block(GPIOB->CRL,0xf,0xb,0);
	Macro_Write_Block(TIM3->CCMR2,0x7,0x6,4);
 8003d0e:	f023 0370 	bic.w	r3, r3, #112	; 0x70
 8003d12:	041b      	lsls	r3, r3, #16
 8003d14:	0c1b      	lsrs	r3, r3, #16
 8003d16:	f043 0360 	orr.w	r3, r3, #96	; 0x60
 8003d1a:	8393      	strh	r3, [r2, #28]
	TIM3->CCER = (0<<9)|(1<<8);
 8003d1c:	8411      	strh	r1, [r2, #32]
 8003d1e:	4770      	bx	lr

08003d20 <TIM3_Out_Freq_Generation>:
{
	// Timer 주파수가 TIM3_FREQ가 되도록 PSC 설정
	TIM3->PSC = (unsigned int)(TIMXCLK/TIM3_FREQ + 0.5) - 1;

	// 요청한 주파수가 되도록 ARR 설정
	TIM3->ARR = TIM3_FREQ/freq;
 8003d20:	f44f 5390 	mov.w	r3, #4608	; 0x1200
 8003d24:	f2c0 037a 	movt	r3, #122	; 0x7a
 8003d28:	fb93 f0f0 	sdiv	r0, r3, r0
}

void TIM3_Out_Freq_Generation(unsigned short freq)
{
	// Timer 주파수가 TIM3_FREQ가 되도록 PSC 설정
	TIM3->PSC = (unsigned int)(TIMXCLK/TIM3_FREQ + 0.5) - 1;
 8003d2c:	f44f 6380 	mov.w	r3, #1024	; 0x400
 8003d30:	f2c4 0300 	movt	r3, #16384	; 0x4000
 8003d34:	2208      	movs	r2, #8

	// 요청한 주파수가 되도록 ARR 설정
	TIM3->ARR = TIM3_FREQ/freq;
 8003d36:	b280      	uxth	r0, r0
}

void TIM3_Out_Freq_Generation(unsigned short freq)
{
	// Timer 주파수가 TIM3_FREQ가 되도록 PSC 설정
	TIM3->PSC = (unsigned int)(TIMXCLK/TIM3_FREQ + 0.5) - 1;
 8003d38:	851a      	strh	r2, [r3, #40]	; 0x28

	// 요청한 주파수가 되도록 ARR 설정
	TIM3->ARR = TIM3_FREQ/freq;
 8003d3a:	8598      	strh	r0, [r3, #44]	; 0x2c

	// Duty Rate 50%가 되도록 CCR3 설정
	TIM3->CCR3 = TIM3->ARR/2;
 8003d3c:	8d99      	ldrh	r1, [r3, #44]	; 0x2c

	// Manual Update(UG 발생)
	TIM3->EGR |= (1<<0);

	// Down Counter, Repeat Mode, Timer Start
	TIM3->CR1 = (1<<0)|(0<<3)|(1<<4);
 8003d3e:	2211      	movs	r2, #17

	// 요청한 주파수가 되도록 ARR 설정
	TIM3->ARR = TIM3_FREQ/freq;

	// Duty Rate 50%가 되도록 CCR3 설정
	TIM3->CCR3 = TIM3->ARR/2;
 8003d40:	f3c1 014e 	ubfx	r1, r1, #1, #15
 8003d44:	8799      	strh	r1, [r3, #60]	; 0x3c

	// Manual Update(UG 발생)
	TIM3->EGR |= (1<<0);
 8003d46:	8a99      	ldrh	r1, [r3, #20]
 8003d48:	b289      	uxth	r1, r1
 8003d4a:	f041 0101 	orr.w	r1, r1, #1
 8003d4e:	8299      	strh	r1, [r3, #20]

	// Down Counter, Repeat Mode, Timer Start
	TIM3->CR1 = (1<<0)|(0<<3)|(1<<4);
 8003d50:	801a      	strh	r2, [r3, #0]
 8003d52:	4770      	bx	lr

08003d54 <TIM3_Out_Stop>:

}

void TIM3_Out_Stop(void)
{
	Macro_Clear_Bit(TIM3->CR1, 0);
 8003d54:	f44f 6380 	mov.w	r3, #1024	; 0x400
 8003d58:	f2c4 0300 	movt	r3, #16384	; 0x4000
 8003d5c:	881a      	ldrh	r2, [r3, #0]
 8003d5e:	f022 0201 	bic.w	r2, r2, #1
 8003d62:	0412      	lsls	r2, r2, #16
 8003d64:	0c12      	lsrs	r2, r2, #16
 8003d66:	801a      	strh	r2, [r3, #0]
	Macro_Clear_Bit(TIM3->DIER, 0);
 8003d68:	899a      	ldrh	r2, [r3, #12]
 8003d6a:	f022 0201 	bic.w	r2, r2, #1
 8003d6e:	0412      	lsls	r2, r2, #16
 8003d70:	0c12      	lsrs	r2, r2, #16
 8003d72:	819a      	strh	r2, [r3, #12]
 8003d74:	4770      	bx	lr
 8003d76:	bf00      	nop

08003d78 <Uart1_Init>:
#include <string.h>
#include <stdlib.h>
#include <ctype.h>

void Uart1_Init(int baud)
{
 8003d78:	b570      	push	{r4, r5, r6, lr}
	double div;
	unsigned int mant;
	unsigned int frac;

	Macro_Set_Bit(RCC->APB2ENR, 2);
 8003d7a:	f44f 5280 	mov.w	r2, #4096	; 0x1000
 8003d7e:	f2c4 0202 	movt	r2, #16386	; 0x4002
 8003d82:	6991      	ldr	r1, [r2, #24]
	Macro_Set_Bit(RCC->APB2ENR, 14);
	Macro_Write_Block(GPIOA->CRH, 0xff, 0x8a, 4);
 8003d84:	f44f 6300 	mov.w	r3, #2048	; 0x800
{
	double div;
	unsigned int mant;
	unsigned int frac;

	Macro_Set_Bit(RCC->APB2ENR, 2);
 8003d88:	f041 0104 	orr.w	r1, r1, #4
 8003d8c:	6191      	str	r1, [r2, #24]
	Macro_Set_Bit(RCC->APB2ENR, 14);
 8003d8e:	6991      	ldr	r1, [r2, #24]
	Macro_Write_Block(GPIOA->CRH, 0xff, 0x8a, 4);
 8003d90:	f2c4 0301 	movt	r3, #16385	; 0x4001
	double div;
	unsigned int mant;
	unsigned int frac;

	Macro_Set_Bit(RCC->APB2ENR, 2);
	Macro_Set_Bit(RCC->APB2ENR, 14);
 8003d94:	f441 4180 	orr.w	r1, r1, #16384	; 0x4000
 8003d98:	6191      	str	r1, [r2, #24]
	Macro_Write_Block(GPIOA->CRH, 0xff, 0x8a, 4);
 8003d9a:	685a      	ldr	r2, [r3, #4]
 8003d9c:	f422 627f 	bic.w	r2, r2, #4080	; 0xff0
 8003da0:	f442 620a 	orr.w	r2, r2, #2208	; 0x8a0
 8003da4:	605a      	str	r2, [r3, #4]
	Macro_Set_Bit(GPIOA->ODR, 10);
 8003da6:	68da      	ldr	r2, [r3, #12]
 8003da8:	f442 6280 	orr.w	r2, r2, #1024	; 0x400
 8003dac:	60da      	str	r2, [r3, #12]

	div = PCLK2/(16. * baud);
 8003dae:	f005 fa8b 	bl	80092c8 <__aeabi_i2d>
 8003db2:	2300      	movs	r3, #0
 8003db4:	2200      	movs	r2, #0
 8003db6:	f2c4 0330 	movt	r3, #16432	; 0x4030
 8003dba:	f005 faeb 	bl	8009394 <__aeabi_dmul>
 8003dbe:	4602      	mov	r2, r0
 8003dc0:	460b      	mov	r3, r1
 8003dc2:	a119      	add	r1, pc, #100	; (adr r1, 8003e28 <Uart1_Init+0xb0>)
 8003dc4:	e9d1 0100 	ldrd	r0, r1, [r1]
 8003dc8:	f005 fc0e 	bl	80095e8 <__aeabi_ddiv>
 8003dcc:	460d      	mov	r5, r1
 8003dce:	4604      	mov	r4, r0
	mant = (int)div;
 8003dd0:	f005 fd7a 	bl	80098c8 <__aeabi_d2iz>
 8003dd4:	4606      	mov	r6, r0
	frac = (int)((div - mant) * 16. + 0.5);
 8003dd6:	f005 fa67 	bl	80092a8 <__aeabi_ui2d>
 8003dda:	4602      	mov	r2, r0
 8003ddc:	460b      	mov	r3, r1
 8003dde:	4620      	mov	r0, r4
 8003de0:	4629      	mov	r1, r5
 8003de2:	f005 f923 	bl	800902c <__aeabi_dsub>
 8003de6:	2300      	movs	r3, #0
 8003de8:	2200      	movs	r2, #0
 8003dea:	f2c4 0330 	movt	r3, #16432	; 0x4030
 8003dee:	f005 fad1 	bl	8009394 <__aeabi_dmul>
 8003df2:	2300      	movs	r3, #0
 8003df4:	2200      	movs	r2, #0
 8003df6:	f6c3 73e0 	movt	r3, #16352	; 0x3fe0
 8003dfa:	f005 f919 	bl	8009030 <__adddf3>
 8003dfe:	f005 fd63 	bl	80098c8 <__aeabi_d2iz>
	mant += frac >> 4;
 8003e02:	eb06 1610 	add.w	r6, r6, r0, lsr #4
	frac &= 0xf;
 8003e06:	f000 000f 	and.w	r0, r0, #15

	USART1->BRR = (mant<<4)+(frac<<0);
 8003e0a:	eb00 1006 	add.w	r0, r0, r6, lsl #4
 8003e0e:	f44f 5360 	mov.w	r3, #14336	; 0x3800
 8003e12:	f2c4 0301 	movt	r3, #16385	; 0x4001
	USART1->CR1 = (1<<13)|(0<<12)|(0<<10)|(1<<3)|(1<<2);
	USART1->CR2 = 0<<12;
 8003e16:	2200      	movs	r2, #0
	mant = (int)div;
	frac = (int)((div - mant) * 16. + 0.5);
	mant += frac >> 4;
	frac &= 0xf;

	USART1->BRR = (mant<<4)+(frac<<0);
 8003e18:	b280      	uxth	r0, r0
	USART1->CR1 = (1<<13)|(0<<12)|(0<<10)|(1<<3)|(1<<2);
 8003e1a:	f242 010c 	movw	r1, #8204	; 0x200c
	mant = (int)div;
	frac = (int)((div - mant) * 16. + 0.5);
	mant += frac >> 4;
	frac &= 0xf;

	USART1->BRR = (mant<<4)+(frac<<0);
 8003e1e:	8118      	strh	r0, [r3, #8]
	USART1->CR1 = (1<<13)|(0<<12)|(0<<10)|(1<<3)|(1<<2);
 8003e20:	8199      	strh	r1, [r3, #12]
	USART1->CR2 = 0<<12;
 8003e22:	821a      	strh	r2, [r3, #16]
	USART1->CR3 = 0;
 8003e24:	829a      	strh	r2, [r3, #20]
 8003e26:	bd70      	pop	{r4, r5, r6, pc}
 8003e28:	00000000 	andeq	r0, r0, r0
 8003e2c:	41912a88 	orrsmi	r2, r1, r8, lsl #21

08003e30 <Uart1_Send_Byte>:
}

void Uart1_Send_Byte(char data)
{
	if(data=='\n')
 8003e30:	280a      	cmp	r0, #10
 8003e32:	d00c      	beq.n	8003e4e <Uart1_Send_Byte+0x1e>
	{
		while(Macro_Check_Bit_Clear(USART1->SR, 7));
		USART1->DR = 0x0d;
	}

	while(Macro_Check_Bit_Clear(USART1->SR, 7));
 8003e34:	f44f 5160 	mov.w	r1, #14336	; 0x3800
 8003e38:	f2c4 0101 	movt	r1, #16385	; 0x4001
 8003e3c:	880a      	ldrh	r2, [r1, #0]
 8003e3e:	f44f 5360 	mov.w	r3, #14336	; 0x3800
 8003e42:	0612      	lsls	r2, r2, #24
 8003e44:	f2c4 0301 	movt	r3, #16385	; 0x4001
 8003e48:	d5f8      	bpl.n	8003e3c <Uart1_Send_Byte+0xc>
	USART1->DR = data;
 8003e4a:	8098      	strh	r0, [r3, #4]
 8003e4c:	4770      	bx	lr

void Uart1_Send_Byte(char data)
{
	if(data=='\n')
	{
		while(Macro_Check_Bit_Clear(USART1->SR, 7));
 8003e4e:	f44f 5160 	mov.w	r1, #14336	; 0x3800
 8003e52:	f2c4 0101 	movt	r1, #16385	; 0x4001
 8003e56:	880a      	ldrh	r2, [r1, #0]
 8003e58:	f44f 5360 	mov.w	r3, #14336	; 0x3800
 8003e5c:	0612      	lsls	r2, r2, #24
 8003e5e:	f2c4 0301 	movt	r3, #16385	; 0x4001
 8003e62:	d5f8      	bpl.n	8003e56 <Uart1_Send_Byte+0x26>
		USART1->DR = 0x0d;
 8003e64:	220d      	movs	r2, #13
 8003e66:	809a      	strh	r2, [r3, #4]
 8003e68:	e7e4      	b.n	8003e34 <Uart1_Send_Byte+0x4>
 8003e6a:	bf00      	nop

08003e6c <Uart1_Send_String>:
	while(Macro_Check_Bit_Clear(USART1->SR, 7));
	USART1->DR = data;
}

void Uart1_Send_String(char *pt)
{
 8003e6c:	b430      	push	{r4, r5}
	while(*pt!=0)
 8003e6e:	7804      	ldrb	r4, [r0, #0]
 8003e70:	b194      	cbz	r4, 8003e98 <Uart1_Send_String+0x2c>

void Uart1_Send_Byte(char data)
{
	if(data=='\n')
	{
		while(Macro_Check_Bit_Clear(USART1->SR, 7));
 8003e72:	f44f 5160 	mov.w	r1, #14336	; 0x3800
 8003e76:	f2c4 0101 	movt	r1, #16385	; 0x4001
		USART1->DR = 0x0d;
 8003e7a:	250d      	movs	r5, #13
	USART1->CR3 = 0;
}

void Uart1_Send_Byte(char data)
{
	if(data=='\n')
 8003e7c:	2c0a      	cmp	r4, #10
 8003e7e:	d00d      	beq.n	8003e9c <Uart1_Send_String+0x30>
	{
		while(Macro_Check_Bit_Clear(USART1->SR, 7));
		USART1->DR = 0x0d;
	}

	while(Macro_Check_Bit_Clear(USART1->SR, 7));
 8003e80:	880a      	ldrh	r2, [r1, #0]
 8003e82:	f44f 5360 	mov.w	r3, #14336	; 0x3800
 8003e86:	0612      	lsls	r2, r2, #24
 8003e88:	f2c4 0301 	movt	r3, #16385	; 0x4001
 8003e8c:	d5f8      	bpl.n	8003e80 <Uart1_Send_String+0x14>
	USART1->DR = data;
 8003e8e:	809c      	strh	r4, [r3, #4]
}

void Uart1_Send_String(char *pt)
{
	while(*pt!=0)
 8003e90:	f810 4f01 	ldrb.w	r4, [r0, #1]!
 8003e94:	2c00      	cmp	r4, #0
 8003e96:	d1f1      	bne.n	8003e7c <Uart1_Send_String+0x10>
	{
		Uart1_Send_Byte(*pt++);
	}
}
 8003e98:	bc30      	pop	{r4, r5}
 8003e9a:	4770      	bx	lr

void Uart1_Send_Byte(char data)
{
	if(data=='\n')
	{
		while(Macro_Check_Bit_Clear(USART1->SR, 7));
 8003e9c:	880a      	ldrh	r2, [r1, #0]
 8003e9e:	f44f 5360 	mov.w	r3, #14336	; 0x3800
 8003ea2:	0612      	lsls	r2, r2, #24
 8003ea4:	f2c4 0301 	movt	r3, #16385	; 0x4001
 8003ea8:	d5f8      	bpl.n	8003e9c <Uart1_Send_String+0x30>
		USART1->DR = 0x0d;
 8003eaa:	809d      	strh	r5, [r3, #4]
 8003eac:	e7e8      	b.n	8003e80 <Uart1_Send_String+0x14>
 8003eae:	bf00      	nop

08003eb0 <Uart1_Printf>:
		Uart1_Send_Byte(*pt++);
	}
}

void Uart1_Printf(char *fmt,...)
{
 8003eb0:	b40f      	push	{r0, r1, r2, r3}
 8003eb2:	b530      	push	{r4, r5, lr}
 8003eb4:	b0c3      	sub	sp, #268	; 0x10c
 8003eb6:	ab46      	add	r3, sp, #280	; 0x118
 8003eb8:	f853 1b04 	ldr.w	r1, [r3], #4
	va_list ap;
	char string[256];

	va_start(ap,fmt);
	vsprintf(string,fmt,ap);
 8003ebc:	a802      	add	r0, sp, #8
 8003ebe:	461a      	mov	r2, r3
void Uart1_Printf(char *fmt,...)
{
	va_list ap;
	char string[256];

	va_start(ap,fmt);
 8003ec0:	9301      	str	r3, [sp, #4]
	vsprintf(string,fmt,ap);
 8003ec2:	f000 f857 	bl	8003f74 <vsprintf>
	USART1->DR = data;
}

void Uart1_Send_String(char *pt)
{
	while(*pt!=0)
 8003ec6:	f89d 0008 	ldrb.w	r0, [sp, #8]
 8003eca:	b198      	cbz	r0, 8003ef4 <Uart1_Printf+0x44>

void Uart1_Send_Byte(char data)
{
	if(data=='\n')
	{
		while(Macro_Check_Bit_Clear(USART1->SR, 7));
 8003ecc:	f44f 5160 	mov.w	r1, #14336	; 0x3800
 8003ed0:	ac02      	add	r4, sp, #8
 8003ed2:	f2c4 0101 	movt	r1, #16385	; 0x4001
		USART1->DR = 0x0d;
 8003ed6:	250d      	movs	r5, #13
	USART1->CR3 = 0;
}

void Uart1_Send_Byte(char data)
{
	if(data=='\n')
 8003ed8:	280a      	cmp	r0, #10
 8003eda:	d010      	beq.n	8003efe <Uart1_Printf+0x4e>
	{
		while(Macro_Check_Bit_Clear(USART1->SR, 7));
		USART1->DR = 0x0d;
	}

	while(Macro_Check_Bit_Clear(USART1->SR, 7));
 8003edc:	880a      	ldrh	r2, [r1, #0]
 8003ede:	f44f 5360 	mov.w	r3, #14336	; 0x3800
 8003ee2:	0612      	lsls	r2, r2, #24
 8003ee4:	f2c4 0301 	movt	r3, #16385	; 0x4001
 8003ee8:	d5f8      	bpl.n	8003edc <Uart1_Printf+0x2c>
	USART1->DR = data;
 8003eea:	8098      	strh	r0, [r3, #4]
}

void Uart1_Send_String(char *pt)
{
	while(*pt!=0)
 8003eec:	f814 0f01 	ldrb.w	r0, [r4, #1]!
 8003ef0:	2800      	cmp	r0, #0
 8003ef2:	d1f1      	bne.n	8003ed8 <Uart1_Printf+0x28>

	va_start(ap,fmt);
	vsprintf(string,fmt,ap);
	Uart1_Send_String(string);
	va_end(ap);
}
 8003ef4:	b043      	add	sp, #268	; 0x10c
 8003ef6:	e8bd 4030 	ldmia.w	sp!, {r4, r5, lr}
 8003efa:	b004      	add	sp, #16
 8003efc:	4770      	bx	lr

void Uart1_Send_Byte(char data)
{
	if(data=='\n')
	{
		while(Macro_Check_Bit_Clear(USART1->SR, 7));
 8003efe:	880a      	ldrh	r2, [r1, #0]
 8003f00:	f44f 5360 	mov.w	r3, #14336	; 0x3800
 8003f04:	0612      	lsls	r2, r2, #24
 8003f06:	f2c4 0301 	movt	r3, #16385	; 0x4001
 8003f0a:	d5f8      	bpl.n	8003efe <Uart1_Printf+0x4e>
		USART1->DR = 0x0d;
 8003f0c:	809d      	strh	r5, [r3, #4]
 8003f0e:	e7e5      	b.n	8003edc <Uart1_Printf+0x2c>

08003f10 <Uart1_Get_Pressed>:
	va_end(ap);
}

char Uart1_Get_Pressed(void)
{
	if(Macro_Check_Bit_Set(USART1->SR, 5))
 8003f10:	f44f 5360 	mov.w	r3, #14336	; 0x3800
 8003f14:	f2c4 0301 	movt	r3, #16385	; 0x4001
 8003f18:	8818      	ldrh	r0, [r3, #0]
 8003f1a:	f3c0 1040 	ubfx	r0, r0, #5, #1
 8003f1e:	b108      	cbz	r0, 8003f24 <Uart1_Get_Pressed+0x14>
	{
		return (char)USART1->DR;
 8003f20:	8898      	ldrh	r0, [r3, #4]
 8003f22:	b2c0      	uxtb	r0, r0

	else
	{
		return (char)0;
	}
}
 8003f24:	4770      	bx	lr
 8003f26:	bf00      	nop

08003f28 <Uart1_Get_Char>:
	va_end(ap);
}

char Uart1_Get_Pressed(void)
{
	if(Macro_Check_Bit_Set(USART1->SR, 5))
 8003f28:	f44f 5260 	mov.w	r2, #14336	; 0x3800
 8003f2c:	f2c4 0201 	movt	r2, #16385	; 0x4001
 8003f30:	8813      	ldrh	r3, [r2, #0]
 8003f32:	0699      	lsls	r1, r3, #26
 8003f34:	d5fc      	bpl.n	8003f30 <Uart1_Get_Char+0x8>
	{
		return (char)USART1->DR;
 8003f36:	8890      	ldrh	r0, [r2, #4]
 8003f38:	b2c0      	uxtb	r0, r0

char Uart1_Get_Char(void)
{
	char rx;

	while((rx = Uart1_Get_Pressed()) == 0);
 8003f3a:	2800      	cmp	r0, #0
 8003f3c:	d0f8      	beq.n	8003f30 <Uart1_Get_Char+0x8>

	return rx;
}
 8003f3e:	4770      	bx	lr

08003f40 <_vsprintf_r>:
 8003f40:	b530      	push	{r4, r5, lr}
 8003f42:	b09b      	sub	sp, #108	; 0x6c
 8003f44:	460c      	mov	r4, r1
 8003f46:	4669      	mov	r1, sp
 8003f48:	9400      	str	r4, [sp, #0]
 8003f4a:	f44f 7502 	mov.w	r5, #520	; 0x208
 8003f4e:	9404      	str	r4, [sp, #16]
 8003f50:	f06f 4400 	mvn.w	r4, #2147483648	; 0x80000000
 8003f54:	f8ad 500c 	strh.w	r5, [sp, #12]
 8003f58:	f64f 75ff 	movw	r5, #65535	; 0xffff
 8003f5c:	9402      	str	r4, [sp, #8]
 8003f5e:	9405      	str	r4, [sp, #20]
 8003f60:	f8ad 500e 	strh.w	r5, [sp, #14]
 8003f64:	f000 f814 	bl	8003f90 <_svfprintf_r>
 8003f68:	9b00      	ldr	r3, [sp, #0]
 8003f6a:	2200      	movs	r2, #0
 8003f6c:	701a      	strb	r2, [r3, #0]
 8003f6e:	b01b      	add	sp, #108	; 0x6c
 8003f70:	bd30      	pop	{r4, r5, pc}
 8003f72:	bf00      	nop

08003f74 <vsprintf>:
 8003f74:	b430      	push	{r4, r5}
 8003f76:	f240 0400 	movw	r4, #0
 8003f7a:	f2c2 0400 	movt	r4, #8192	; 0x2000
 8003f7e:	460d      	mov	r5, r1
 8003f80:	4613      	mov	r3, r2
 8003f82:	4601      	mov	r1, r0
 8003f84:	462a      	mov	r2, r5
 8003f86:	6820      	ldr	r0, [r4, #0]
 8003f88:	bc30      	pop	{r4, r5}
 8003f8a:	f7ff bfd9 	b.w	8003f40 <_vsprintf_r>
 8003f8e:	bf00      	nop

08003f90 <_svfprintf_r>:
 8003f90:	e92d 4ff0 	stmdb	sp!, {r4, r5, r6, r7, r8, r9, sl, fp, lr}
 8003f94:	b0c9      	sub	sp, #292	; 0x124
 8003f96:	4691      	mov	r9, r2
 8003f98:	9314      	str	r3, [sp, #80]	; 0x50
 8003f9a:	910b      	str	r1, [sp, #44]	; 0x2c
 8003f9c:	900e      	str	r0, [sp, #56]	; 0x38
 8003f9e:	f002 fafb 	bl	8006598 <_localeconv_r>
 8003fa2:	6800      	ldr	r0, [r0, #0]
 8003fa4:	901a      	str	r0, [sp, #104]	; 0x68
 8003fa6:	f003 fc67 	bl	8007878 <strlen>
 8003faa:	9c0b      	ldr	r4, [sp, #44]	; 0x2c
 8003fac:	89a3      	ldrh	r3, [r4, #12]
 8003fae:	901d      	str	r0, [sp, #116]	; 0x74
 8003fb0:	0618      	lsls	r0, r3, #24
 8003fb2:	d503      	bpl.n	8003fbc <_svfprintf_r+0x2c>
 8003fb4:	6923      	ldr	r3, [r4, #16]
 8003fb6:	2b00      	cmp	r3, #0
 8003fb8:	f001 8079 	beq.w	80050ae <_svfprintf_r+0x111e>
 8003fbc:	f24a 0544 	movw	r5, #41028	; 0xa044
 8003fc0:	ac38      	add	r4, sp, #224	; 0xe0
 8003fc2:	f6c0 0500 	movt	r5, #2048	; 0x800
 8003fc6:	9515      	str	r5, [sp, #84]	; 0x54
 8003fc8:	f10d 05df 	add.w	r5, sp, #223	; 0xdf
 8003fcc:	9508      	str	r5, [sp, #32]
 8003fce:	9d15      	ldr	r5, [sp, #84]	; 0x54
 8003fd0:	af38      	add	r7, sp, #224	; 0xe0
 8003fd2:	9409      	str	r4, [sp, #36]	; 0x24
 8003fd4:	f24a 24dc 	movw	r4, #41692	; 0xa2dc
 8003fd8:	f105 0610 	add.w	r6, r5, #16
 8003fdc:	9d08      	ldr	r5, [sp, #32]
 8003fde:	2300      	movs	r3, #0
 8003fe0:	f6c0 0400 	movt	r4, #2048	; 0x800
 8003fe4:	9311      	str	r3, [sp, #68]	; 0x44
 8003fe6:	9417      	str	r4, [sp, #92]	; 0x5c
 8003fe8:	1b7c      	subs	r4, r7, r5
 8003fea:	931b      	str	r3, [sp, #108]	; 0x6c
 8003fec:	931c      	str	r3, [sp, #112]	; 0x70
 8003fee:	9319      	str	r3, [sp, #100]	; 0x64
 8003ff0:	931e      	str	r3, [sp, #120]	; 0x78
 8003ff2:	9312      	str	r3, [sp, #72]	; 0x48
 8003ff4:	9421      	str	r4, [sp, #132]	; 0x84
 8003ff6:	932d      	str	r3, [sp, #180]	; 0xb4
 8003ff8:	932c      	str	r3, [sp, #176]	; 0xb0
 8003ffa:	972b      	str	r7, [sp, #172]	; 0xac
 8003ffc:	f899 3000 	ldrb.w	r3, [r9]
 8004000:	2b25      	cmp	r3, #37	; 0x25
 8004002:	bf18      	it	ne
 8004004:	2b00      	cmpne	r3, #0
 8004006:	f000 80b3 	beq.w	8004170 <_svfprintf_r+0x1e0>
 800400a:	f109 0201 	add.w	r2, r9, #1
 800400e:	4614      	mov	r4, r2
 8004010:	3201      	adds	r2, #1
 8004012:	7823      	ldrb	r3, [r4, #0]
 8004014:	2b25      	cmp	r3, #37	; 0x25
 8004016:	bf18      	it	ne
 8004018:	2b00      	cmpne	r3, #0
 800401a:	d1f8      	bne.n	800400e <_svfprintf_r+0x7e>
 800401c:	ebb4 0509 	subs.w	r5, r4, r9
 8004020:	d00f      	beq.n	8004042 <_svfprintf_r+0xb2>
 8004022:	9b2c      	ldr	r3, [sp, #176]	; 0xb0
 8004024:	9a2d      	ldr	r2, [sp, #180]	; 0xb4
 8004026:	3301      	adds	r3, #1
 8004028:	f8c7 9000 	str.w	r9, [r7]
 800402c:	2b07      	cmp	r3, #7
 800402e:	607d      	str	r5, [r7, #4]
 8004030:	442a      	add	r2, r5
 8004032:	932c      	str	r3, [sp, #176]	; 0xb0
 8004034:	922d      	str	r2, [sp, #180]	; 0xb4
 8004036:	bfd8      	it	le
 8004038:	3708      	addle	r7, #8
 800403a:	dc7f      	bgt.n	800413c <_svfprintf_r+0x1ac>
 800403c:	9812      	ldr	r0, [sp, #72]	; 0x48
 800403e:	4428      	add	r0, r5
 8004040:	9012      	str	r0, [sp, #72]	; 0x48
 8004042:	7823      	ldrb	r3, [r4, #0]
 8004044:	2b00      	cmp	r3, #0
 8004046:	f000 8081 	beq.w	800414c <_svfprintf_r+0x1bc>
 800404a:	2300      	movs	r3, #0
 800404c:	f88d 308f 	strb.w	r3, [sp, #143]	; 0x8f
 8004050:	461a      	mov	r2, r3
 8004052:	9313      	str	r3, [sp, #76]	; 0x4c
 8004054:	930a      	str	r3, [sp, #40]	; 0x28
 8004056:	f104 0901 	add.w	r9, r4, #1
 800405a:	7863      	ldrb	r3, [r4, #1]
 800405c:	f04f 34ff 	mov.w	r4, #4294967295
 8004060:	940c      	str	r4, [sp, #48]	; 0x30
 8004062:	f109 0901 	add.w	r9, r9, #1
 8004066:	f1a3 0120 	sub.w	r1, r3, #32
 800406a:	2958      	cmp	r1, #88	; 0x58
 800406c:	f200 840a 	bhi.w	8004884 <_svfprintf_r+0x8f4>
 8004070:	e8df f011 	tbh	[pc, r1, lsl #1]
 8004074:	0408038e 	streq	r0, [r8], #-910	; 0xfffffc72
 8004078:	03950408 	orrseq	r0, r5, #8, 8	; 0x8000000
 800407c:	04080408 	streq	r0, [r8], #-1032	; 0xfffffbf8
 8004080:	04080408 	streq	r0, [r8], #-1032	; 0xfffffbf8
 8004084:	04080408 	streq	r0, [r8], #-1032	; 0xfffffbf8
 8004088:	0348039c 	movteq	r0, #33692	; 0x839c
 800408c:	005d0408 	subseq	r0, sp, r8, lsl #8
 8004090:	04080235 	streq	r0, [r8], #-565	; 0xfffffdcb
 8004094:	03f603ef 	mvnseq	r0, #-1140850685	; 0xbc000003
 8004098:	03f603f6 	mvnseq	r0, #-671088637	; 0xd8000003
 800409c:	03f603f6 	mvnseq	r0, #-671088637	; 0xd8000003
 80040a0:	03f603f6 	mvnseq	r0, #-671088637	; 0xd8000003
 80040a4:	03f603f6 	mvnseq	r0, #-671088637	; 0xd8000003
 80040a8:	04080408 	streq	r0, [r8], #-1032	; 0xfffffbf8
 80040ac:	04080408 	streq	r0, [r8], #-1032	; 0xfffffbf8
 80040b0:	04080408 	streq	r0, [r8], #-1032	; 0xfffffbf8
 80040b4:	04080408 	streq	r0, [r8], #-1032	; 0xfffffbf8
 80040b8:	04080408 	streq	r0, [r8], #-1032	; 0xfffffbf8
 80040bc:	0290026e 	addseq	r0, r0, #-536870906	; 0xe0000006
 80040c0:	02900408 	addseq	r0, r0, #8, 8	; 0x8000000
 80040c4:	04080408 	streq	r0, [r8], #-1032	; 0xfffffbf8
 80040c8:	04080408 	streq	r0, [r8], #-1032	; 0xfffffbf8
 80040cc:	040802cd 	streq	r0, [r8], #-717	; 0xfffffd33
 80040d0:	02d40408 	sbcseq	r0, r4, #8, 8	; 0x8000000
 80040d4:	04080408 	streq	r0, [r8], #-1032	; 0xfffffbf8
 80040d8:	04080408 	streq	r0, [r8], #-1032	; 0xfffffbf8
 80040dc:	02550408 	subseq	r0, r5, #8, 8	; 0x8000000
 80040e0:	04080408 	streq	r0, [r8], #-1032	; 0xfffffbf8
 80040e4:	040803bc 	streq	r0, [r8], #-956	; 0xfffffc44
 80040e8:	04080408 	streq	r0, [r8], #-1032	; 0xfffffbf8
 80040ec:	04080408 	streq	r0, [r8], #-1032	; 0xfffffbf8
 80040f0:	04080408 	streq	r0, [r8], #-1032	; 0xfffffbf8
 80040f4:	04080408 	streq	r0, [r8], #-1032	; 0xfffffbf8
 80040f8:	03a80408 			; <UNDEFINED> instruction: 0x03a80408
 80040fc:	029003d7 	addseq	r0, r0, #1543503875	; 0x5c000003
 8004100:	02900290 	addseq	r0, r0, #144, 4
 8004104:	03d70387 	bicseq	r0, r7, #469762050	; 0x1c000002
 8004108:	04080408 	streq	r0, [r8], #-1032	; 0xfffffbf8
 800410c:	0408034c 	streq	r0, [r8], #-844	; 0xfffffcb4
 8004110:	0224035e 	eoreq	r0, r4, #2013265921	; 0x78000001
 8004114:	02f00370 	rscseq	r0, r0, #112, 6	; 0xc0000001
 8004118:	02f70408 	rscseq	r0, r7, #8, 8	; 0x8000000
 800411c:	00800408 	addeq	r0, r0, r8, lsl #8
 8004120:	04080408 	streq	r0, [r8], #-1032	; 0xfffffbf8
 8004124:	9c130320 	ldcls	3, cr0, [r3], {32}
 8004128:	9314      	str	r3, [sp, #80]	; 0x50
 800412a:	4264      	negs	r4, r4
 800412c:	9413      	str	r4, [sp, #76]	; 0x4c
 800412e:	9d0a      	ldr	r5, [sp, #40]	; 0x28
 8004130:	f045 0504 	orr.w	r5, r5, #4
 8004134:	950a      	str	r5, [sp, #40]	; 0x28
 8004136:	f899 3000 	ldrb.w	r3, [r9]
 800413a:	e792      	b.n	8004062 <_svfprintf_r+0xd2>
 800413c:	980e      	ldr	r0, [sp, #56]	; 0x38
 800413e:	aa2b      	add	r2, sp, #172	; 0xac
 8004140:	990b      	ldr	r1, [sp, #44]	; 0x2c
 8004142:	f003 fbc9 	bl	80078d8 <__ssprint_r>
 8004146:	b940      	cbnz	r0, 800415a <_svfprintf_r+0x1ca>
 8004148:	af38      	add	r7, sp, #224	; 0xe0
 800414a:	e777      	b.n	800403c <_svfprintf_r+0xac>
 800414c:	9b2d      	ldr	r3, [sp, #180]	; 0xb4
 800414e:	b123      	cbz	r3, 800415a <_svfprintf_r+0x1ca>
 8004150:	980e      	ldr	r0, [sp, #56]	; 0x38
 8004152:	aa2b      	add	r2, sp, #172	; 0xac
 8004154:	990b      	ldr	r1, [sp, #44]	; 0x2c
 8004156:	f003 fbbf 	bl	80078d8 <__ssprint_r>
 800415a:	9c0b      	ldr	r4, [sp, #44]	; 0x2c
 800415c:	9812      	ldr	r0, [sp, #72]	; 0x48
 800415e:	89a3      	ldrh	r3, [r4, #12]
 8004160:	f013 0f40 	tst.w	r3, #64	; 0x40
 8004164:	bf18      	it	ne
 8004166:	f04f 30ff 	movne.w	r0, #4294967295
 800416a:	b049      	add	sp, #292	; 0x124
 800416c:	e8bd 8ff0 	ldmia.w	sp!, {r4, r5, r6, r7, r8, r9, sl, fp, pc}
 8004170:	464c      	mov	r4, r9
 8004172:	e766      	b.n	8004042 <_svfprintf_r+0xb2>
 8004174:	9c0a      	ldr	r4, [sp, #40]	; 0x28
 8004176:	9316      	str	r3, [sp, #88]	; 0x58
 8004178:	06a3      	lsls	r3, r4, #26
 800417a:	f140 81d9 	bpl.w	8004530 <_svfprintf_r+0x5a0>
 800417e:	9d14      	ldr	r5, [sp, #80]	; 0x50
 8004180:	2301      	movs	r3, #1
 8004182:	1dea      	adds	r2, r5, #7
 8004184:	f022 0207 	bic.w	r2, r2, #7
 8004188:	f102 0408 	add.w	r4, r2, #8
 800418c:	9414      	str	r4, [sp, #80]	; 0x50
 800418e:	e9d2 4500 	ldrd	r4, r5, [r2]
 8004192:	f04f 0a00 	mov.w	sl, #0
 8004196:	f88d a08f 	strb.w	sl, [sp, #143]	; 0x8f
 800419a:	980c      	ldr	r0, [sp, #48]	; 0x30
 800419c:	2800      	cmp	r0, #0
 800419e:	980c      	ldr	r0, [sp, #48]	; 0x30
 80041a0:	bfa2      	ittt	ge
 80041a2:	990a      	ldrge	r1, [sp, #40]	; 0x28
 80041a4:	f021 0180 	bicge.w	r1, r1, #128	; 0x80
 80041a8:	910a      	strge	r1, [sp, #40]	; 0x28
 80041aa:	ea54 0205 	orrs.w	r2, r4, r5
 80041ae:	bf0c      	ite	eq
 80041b0:	2200      	moveq	r2, #0
 80041b2:	2201      	movne	r2, #1
 80041b4:	2800      	cmp	r0, #0
 80041b6:	bf18      	it	ne
 80041b8:	f042 0201 	orrne.w	r2, r2, #1
 80041bc:	2a00      	cmp	r2, #0
 80041be:	f000 83e5 	beq.w	800498c <_svfprintf_r+0x9fc>
 80041c2:	2b01      	cmp	r3, #1
 80041c4:	f000 8509 	beq.w	8004bda <_svfprintf_r+0xc4a>
 80041c8:	2b02      	cmp	r3, #2
 80041ca:	f10d 02df 	add.w	r2, sp, #223	; 0xdf
 80041ce:	f040 8159 	bne.w	8004484 <_svfprintf_r+0x4f4>
 80041d2:	f8dd c064 	ldr.w	ip, [sp, #100]	; 0x64
 80041d6:	f004 010f 	and.w	r1, r4, #15
 80041da:	0923      	lsrs	r3, r4, #4
 80041dc:	ea43 7305 	orr.w	r3, r3, r5, lsl #28
 80041e0:	0928      	lsrs	r0, r5, #4
 80041e2:	f81c 1001 	ldrb.w	r1, [ip, r1]
 80041e6:	461c      	mov	r4, r3
 80041e8:	4605      	mov	r5, r0
 80041ea:	4690      	mov	r8, r2
 80041ec:	ea54 0005 	orrs.w	r0, r4, r5
 80041f0:	f102 32ff 	add.w	r2, r2, #4294967295
 80041f4:	f888 1000 	strb.w	r1, [r8]
 80041f8:	d1ed      	bne.n	80041d6 <_svfprintf_r+0x246>
 80041fa:	9b09      	ldr	r3, [sp, #36]	; 0x24
 80041fc:	ebc8 0303 	rsb	r3, r8, r3
 8004200:	9310      	str	r3, [sp, #64]	; 0x40
 8004202:	9c0c      	ldr	r4, [sp, #48]	; 0x30
 8004204:	9d10      	ldr	r5, [sp, #64]	; 0x40
 8004206:	42a5      	cmp	r5, r4
 8004208:	bfb8      	it	lt
 800420a:	4625      	movlt	r5, r4
 800420c:	2400      	movs	r4, #0
 800420e:	950d      	str	r5, [sp, #52]	; 0x34
 8004210:	9418      	str	r4, [sp, #96]	; 0x60
 8004212:	f1ba 0f00 	cmp.w	sl, #0
 8004216:	d002      	beq.n	800421e <_svfprintf_r+0x28e>
 8004218:	9d0d      	ldr	r5, [sp, #52]	; 0x34
 800421a:	3501      	adds	r5, #1
 800421c:	950d      	str	r5, [sp, #52]	; 0x34
 800421e:	9b0a      	ldr	r3, [sp, #40]	; 0x28
 8004220:	f013 0302 	ands.w	r3, r3, #2
 8004224:	930f      	str	r3, [sp, #60]	; 0x3c
 8004226:	bf1e      	ittt	ne
 8004228:	9c0d      	ldrne	r4, [sp, #52]	; 0x34
 800422a:	3402      	addne	r4, #2
 800422c:	940d      	strne	r4, [sp, #52]	; 0x34
 800422e:	9c0a      	ldr	r4, [sp, #40]	; 0x28
 8004230:	f014 0584 	ands.w	r5, r4, #132	; 0x84
 8004234:	f040 8346 	bne.w	80048c4 <_svfprintf_r+0x934>
 8004238:	9c13      	ldr	r4, [sp, #76]	; 0x4c
 800423a:	980d      	ldr	r0, [sp, #52]	; 0x34
 800423c:	ebc0 0b04 	rsb	fp, r0, r4
 8004240:	f1bb 0f00 	cmp.w	fp, #0
 8004244:	f340 833e 	ble.w	80048c4 <_svfprintf_r+0x934>
 8004248:	f1bb 0f10 	cmp.w	fp, #16
 800424c:	f24a 0a44 	movw	sl, #41028	; 0xa044
 8004250:	992d      	ldr	r1, [sp, #180]	; 0xb4
 8004252:	bfdc      	itt	le
 8004254:	f6c0 0a00 	movtle	sl, #2048	; 0x800
 8004258:	9a2c      	ldrle	r2, [sp, #176]	; 0xb0
 800425a:	dd32      	ble.n	80042c2 <_svfprintf_r+0x332>
 800425c:	f6c0 0a00 	movt	sl, #2048	; 0x800
 8004260:	f8cd 807c 	str.w	r8, [sp, #124]	; 0x7c
 8004264:	9520      	str	r5, [sp, #128]	; 0x80
 8004266:	46d8      	mov	r8, fp
 8004268:	9a2c      	ldr	r2, [sp, #176]	; 0xb0
 800426a:	46d3      	mov	fp, sl
 800426c:	2410      	movs	r4, #16
 800426e:	46ca      	mov	sl, r9
 8004270:	9d15      	ldr	r5, [sp, #84]	; 0x54
 8004272:	f8dd 902c 	ldr.w	r9, [sp, #44]	; 0x2c
 8004276:	e004      	b.n	8004282 <_svfprintf_r+0x2f2>
 8004278:	f1a8 0810 	sub.w	r8, r8, #16
 800427c:	f1b8 0f10 	cmp.w	r8, #16
 8004280:	dd19      	ble.n	80042b6 <_svfprintf_r+0x326>
 8004282:	3201      	adds	r2, #1
 8004284:	3110      	adds	r1, #16
 8004286:	2a07      	cmp	r2, #7
 8004288:	603d      	str	r5, [r7, #0]
 800428a:	607c      	str	r4, [r7, #4]
 800428c:	f107 0708 	add.w	r7, r7, #8
 8004290:	922c      	str	r2, [sp, #176]	; 0xb0
 8004292:	912d      	str	r1, [sp, #180]	; 0xb4
 8004294:	ddf0      	ble.n	8004278 <_svfprintf_r+0x2e8>
 8004296:	980e      	ldr	r0, [sp, #56]	; 0x38
 8004298:	4649      	mov	r1, r9
 800429a:	aa2b      	add	r2, sp, #172	; 0xac
 800429c:	af38      	add	r7, sp, #224	; 0xe0
 800429e:	f003 fb1b 	bl	80078d8 <__ssprint_r>
 80042a2:	2800      	cmp	r0, #0
 80042a4:	f47f af59 	bne.w	800415a <_svfprintf_r+0x1ca>
 80042a8:	f1a8 0810 	sub.w	r8, r8, #16
 80042ac:	992d      	ldr	r1, [sp, #180]	; 0xb4
 80042ae:	f1b8 0f10 	cmp.w	r8, #16
 80042b2:	9a2c      	ldr	r2, [sp, #176]	; 0xb0
 80042b4:	dce5      	bgt.n	8004282 <_svfprintf_r+0x2f2>
 80042b6:	46d1      	mov	r9, sl
 80042b8:	9d20      	ldr	r5, [sp, #128]	; 0x80
 80042ba:	46da      	mov	sl, fp
 80042bc:	46c3      	mov	fp, r8
 80042be:	f8dd 807c 	ldr.w	r8, [sp, #124]	; 0x7c
 80042c2:	3201      	adds	r2, #1
 80042c4:	eb0b 0401 	add.w	r4, fp, r1
 80042c8:	2a07      	cmp	r2, #7
 80042ca:	922c      	str	r2, [sp, #176]	; 0xb0
 80042cc:	942d      	str	r4, [sp, #180]	; 0xb4
 80042ce:	e887 0c00 	stmia.w	r7, {sl, fp}
 80042d2:	f300 82ec 	bgt.w	80048ae <_svfprintf_r+0x91e>
 80042d6:	f89d a08f 	ldrb.w	sl, [sp, #143]	; 0x8f
 80042da:	3708      	adds	r7, #8
 80042dc:	f1ba 0f00 	cmp.w	sl, #0
 80042e0:	d00e      	beq.n	8004300 <_svfprintf_r+0x370>
 80042e2:	9b2c      	ldr	r3, [sp, #176]	; 0xb0
 80042e4:	f10d 028f 	add.w	r2, sp, #143	; 0x8f
 80042e8:	3401      	adds	r4, #1
 80042ea:	603a      	str	r2, [r7, #0]
 80042ec:	3301      	adds	r3, #1
 80042ee:	2201      	movs	r2, #1
 80042f0:	2b07      	cmp	r3, #7
 80042f2:	607a      	str	r2, [r7, #4]
 80042f4:	942d      	str	r4, [sp, #180]	; 0xb4
 80042f6:	bfd8      	it	le
 80042f8:	3708      	addle	r7, #8
 80042fa:	932c      	str	r3, [sp, #176]	; 0xb0
 80042fc:	f300 8402 	bgt.w	8004b04 <_svfprintf_r+0xb74>
 8004300:	9b0f      	ldr	r3, [sp, #60]	; 0x3c
 8004302:	b16b      	cbz	r3, 8004320 <_svfprintf_r+0x390>
 8004304:	9b2c      	ldr	r3, [sp, #176]	; 0xb0
 8004306:	aa24      	add	r2, sp, #144	; 0x90
 8004308:	3402      	adds	r4, #2
 800430a:	603a      	str	r2, [r7, #0]
 800430c:	3301      	adds	r3, #1
 800430e:	2202      	movs	r2, #2
 8004310:	2b07      	cmp	r3, #7
 8004312:	607a      	str	r2, [r7, #4]
 8004314:	942d      	str	r4, [sp, #180]	; 0xb4
 8004316:	bfd8      	it	le
 8004318:	3708      	addle	r7, #8
 800431a:	932c      	str	r3, [sp, #176]	; 0xb0
 800431c:	f300 83fe 	bgt.w	8004b1c <_svfprintf_r+0xb8c>
 8004320:	2d80      	cmp	r5, #128	; 0x80
 8004322:	f000 8346 	beq.w	80049b2 <_svfprintf_r+0xa22>
 8004326:	9d0c      	ldr	r5, [sp, #48]	; 0x30
 8004328:	9b10      	ldr	r3, [sp, #64]	; 0x40
 800432a:	ebc3 0a05 	rsb	sl, r3, r5
 800432e:	f1ba 0f00 	cmp.w	sl, #0
 8004332:	dd43      	ble.n	80043bc <_svfprintf_r+0x42c>
 8004334:	f1ba 0f10 	cmp.w	sl, #16
 8004338:	9b2c      	ldr	r3, [sp, #176]	; 0xb0
 800433a:	bfdc      	itt	le
 800433c:	4d94      	ldrle	r5, [pc, #592]	; (8004590 <_svfprintf_r+0x600>)
 800433e:	950f      	strle	r5, [sp, #60]	; 0x3c
 8004340:	dd27      	ble.n	8004392 <_svfprintf_r+0x402>
 8004342:	4893      	ldr	r0, [pc, #588]	; (8004590 <_svfprintf_r+0x600>)
 8004344:	4622      	mov	r2, r4
 8004346:	2510      	movs	r5, #16
 8004348:	f8dd b038 	ldr.w	fp, [sp, #56]	; 0x38
 800434c:	9c0b      	ldr	r4, [sp, #44]	; 0x2c
 800434e:	900f      	str	r0, [sp, #60]	; 0x3c
 8004350:	e004      	b.n	800435c <_svfprintf_r+0x3cc>
 8004352:	f1aa 0a10 	sub.w	sl, sl, #16
 8004356:	f1ba 0f10 	cmp.w	sl, #16
 800435a:	dd19      	ble.n	8004390 <_svfprintf_r+0x400>
 800435c:	3301      	adds	r3, #1
 800435e:	3210      	adds	r2, #16
 8004360:	2b07      	cmp	r3, #7
 8004362:	603e      	str	r6, [r7, #0]
 8004364:	607d      	str	r5, [r7, #4]
 8004366:	f107 0708 	add.w	r7, r7, #8
 800436a:	932c      	str	r3, [sp, #176]	; 0xb0
 800436c:	922d      	str	r2, [sp, #180]	; 0xb4
 800436e:	ddf0      	ble.n	8004352 <_svfprintf_r+0x3c2>
 8004370:	4658      	mov	r0, fp
 8004372:	4621      	mov	r1, r4
 8004374:	aa2b      	add	r2, sp, #172	; 0xac
 8004376:	af38      	add	r7, sp, #224	; 0xe0
 8004378:	f003 faae 	bl	80078d8 <__ssprint_r>
 800437c:	2800      	cmp	r0, #0
 800437e:	f47f aeec 	bne.w	800415a <_svfprintf_r+0x1ca>
 8004382:	f1aa 0a10 	sub.w	sl, sl, #16
 8004386:	9a2d      	ldr	r2, [sp, #180]	; 0xb4
 8004388:	f1ba 0f10 	cmp.w	sl, #16
 800438c:	9b2c      	ldr	r3, [sp, #176]	; 0xb0
 800438e:	dce5      	bgt.n	800435c <_svfprintf_r+0x3cc>
 8004390:	4614      	mov	r4, r2
 8004392:	3301      	adds	r3, #1
 8004394:	9d0f      	ldr	r5, [sp, #60]	; 0x3c
 8004396:	2b07      	cmp	r3, #7
 8004398:	4454      	add	r4, sl
 800439a:	932c      	str	r3, [sp, #176]	; 0xb0
 800439c:	e887 0420 	stmia.w	r7, {r5, sl}
 80043a0:	bfd8      	it	le
 80043a2:	3708      	addle	r7, #8
 80043a4:	942d      	str	r4, [sp, #180]	; 0xb4
 80043a6:	dd09      	ble.n	80043bc <_svfprintf_r+0x42c>
 80043a8:	980e      	ldr	r0, [sp, #56]	; 0x38
 80043aa:	aa2b      	add	r2, sp, #172	; 0xac
 80043ac:	990b      	ldr	r1, [sp, #44]	; 0x2c
 80043ae:	f003 fa93 	bl	80078d8 <__ssprint_r>
 80043b2:	2800      	cmp	r0, #0
 80043b4:	f47f aed1 	bne.w	800415a <_svfprintf_r+0x1ca>
 80043b8:	9c2d      	ldr	r4, [sp, #180]	; 0xb4
 80043ba:	af38      	add	r7, sp, #224	; 0xe0
 80043bc:	9d0a      	ldr	r5, [sp, #40]	; 0x28
 80043be:	05eb      	lsls	r3, r5, #23
 80043c0:	f100 8282 	bmi.w	80048c8 <_svfprintf_r+0x938>
 80043c4:	9b2c      	ldr	r3, [sp, #176]	; 0xb0
 80043c6:	9d10      	ldr	r5, [sp, #64]	; 0x40
 80043c8:	3301      	adds	r3, #1
 80043ca:	f8c7 8000 	str.w	r8, [r7]
 80043ce:	2b07      	cmp	r3, #7
 80043d0:	442c      	add	r4, r5
 80043d2:	607d      	str	r5, [r7, #4]
 80043d4:	942d      	str	r4, [sp, #180]	; 0xb4
 80043d6:	932c      	str	r3, [sp, #176]	; 0xb0
 80043d8:	f300 837a 	bgt.w	8004ad0 <_svfprintf_r+0xb40>
 80043dc:	3708      	adds	r7, #8
 80043de:	9d0a      	ldr	r5, [sp, #40]	; 0x28
 80043e0:	076b      	lsls	r3, r5, #29
 80043e2:	d540      	bpl.n	8004466 <_svfprintf_r+0x4d6>
 80043e4:	9813      	ldr	r0, [sp, #76]	; 0x4c
 80043e6:	990d      	ldr	r1, [sp, #52]	; 0x34
 80043e8:	1a45      	subs	r5, r0, r1
 80043ea:	2d00      	cmp	r5, #0
 80043ec:	dd3b      	ble.n	8004466 <_svfprintf_r+0x4d6>
 80043ee:	2d10      	cmp	r5, #16
 80043f0:	f24a 0a44 	movw	sl, #41028	; 0xa044
 80043f4:	9b2c      	ldr	r3, [sp, #176]	; 0xb0
 80043f6:	f6c0 0a00 	movt	sl, #2048	; 0x800
 80043fa:	dd22      	ble.n	8004442 <_svfprintf_r+0x4b2>
 80043fc:	4622      	mov	r2, r4
 80043fe:	f04f 0810 	mov.w	r8, #16
 8004402:	f8dd b038 	ldr.w	fp, [sp, #56]	; 0x38
 8004406:	9c15      	ldr	r4, [sp, #84]	; 0x54
 8004408:	e002      	b.n	8004410 <_svfprintf_r+0x480>
 800440a:	3d10      	subs	r5, #16
 800440c:	2d10      	cmp	r5, #16
 800440e:	dd17      	ble.n	8004440 <_svfprintf_r+0x4b0>
 8004410:	3301      	adds	r3, #1
 8004412:	3210      	adds	r2, #16
 8004414:	2b07      	cmp	r3, #7
 8004416:	e887 0110 	stmia.w	r7, {r4, r8}
 800441a:	932c      	str	r3, [sp, #176]	; 0xb0
 800441c:	f107 0708 	add.w	r7, r7, #8
 8004420:	922d      	str	r2, [sp, #180]	; 0xb4
 8004422:	ddf2      	ble.n	800440a <_svfprintf_r+0x47a>
 8004424:	4658      	mov	r0, fp
 8004426:	990b      	ldr	r1, [sp, #44]	; 0x2c
 8004428:	aa2b      	add	r2, sp, #172	; 0xac
 800442a:	af38      	add	r7, sp, #224	; 0xe0
 800442c:	f003 fa54 	bl	80078d8 <__ssprint_r>
 8004430:	2800      	cmp	r0, #0
 8004432:	f47f ae92 	bne.w	800415a <_svfprintf_r+0x1ca>
 8004436:	3d10      	subs	r5, #16
 8004438:	9a2d      	ldr	r2, [sp, #180]	; 0xb4
 800443a:	2d10      	cmp	r5, #16
 800443c:	9b2c      	ldr	r3, [sp, #176]	; 0xb0
 800443e:	dce7      	bgt.n	8004410 <_svfprintf_r+0x480>
 8004440:	4614      	mov	r4, r2
 8004442:	3301      	adds	r3, #1
 8004444:	442c      	add	r4, r5
 8004446:	2b07      	cmp	r3, #7
 8004448:	932c      	str	r3, [sp, #176]	; 0xb0
 800444a:	942d      	str	r4, [sp, #180]	; 0xb4
 800444c:	f8c7 a000 	str.w	sl, [r7]
 8004450:	607d      	str	r5, [r7, #4]
 8004452:	dd08      	ble.n	8004466 <_svfprintf_r+0x4d6>
 8004454:	980e      	ldr	r0, [sp, #56]	; 0x38
 8004456:	aa2b      	add	r2, sp, #172	; 0xac
 8004458:	990b      	ldr	r1, [sp, #44]	; 0x2c
 800445a:	f003 fa3d 	bl	80078d8 <__ssprint_r>
 800445e:	2800      	cmp	r0, #0
 8004460:	f47f ae7b 	bne.w	800415a <_svfprintf_r+0x1ca>
 8004464:	9c2d      	ldr	r4, [sp, #180]	; 0xb4
 8004466:	9d12      	ldr	r5, [sp, #72]	; 0x48
 8004468:	990d      	ldr	r1, [sp, #52]	; 0x34
 800446a:	9813      	ldr	r0, [sp, #76]	; 0x4c
 800446c:	4281      	cmp	r1, r0
 800446e:	bfac      	ite	ge
 8004470:	186d      	addge	r5, r5, r1
 8004472:	182d      	addlt	r5, r5, r0
 8004474:	9512      	str	r5, [sp, #72]	; 0x48
 8004476:	2c00      	cmp	r4, #0
 8004478:	f040 8335 	bne.w	8004ae6 <_svfprintf_r+0xb56>
 800447c:	2300      	movs	r3, #0
 800447e:	af38      	add	r7, sp, #224	; 0xe0
 8004480:	932c      	str	r3, [sp, #176]	; 0xb0
 8004482:	e5bb      	b.n	8003ffc <_svfprintf_r+0x6c>
 8004484:	08e3      	lsrs	r3, r4, #3
 8004486:	08e9      	lsrs	r1, r5, #3
 8004488:	ea43 7345 	orr.w	r3, r3, r5, lsl #29
 800448c:	4690      	mov	r8, r2
 800448e:	460d      	mov	r5, r1
 8004490:	f004 0207 	and.w	r2, r4, #7
 8004494:	461c      	mov	r4, r3
 8004496:	f102 0330 	add.w	r3, r2, #48	; 0x30
 800449a:	ea54 0105 	orrs.w	r1, r4, r5
 800449e:	f108 32ff 	add.w	r2, r8, #4294967295
 80044a2:	f888 3000 	strb.w	r3, [r8]
 80044a6:	d1ed      	bne.n	8004484 <_svfprintf_r+0x4f4>
 80044a8:	9c0a      	ldr	r4, [sp, #40]	; 0x28
 80044aa:	4641      	mov	r1, r8
 80044ac:	07e0      	lsls	r0, r4, #31
 80044ae:	f100 84f5 	bmi.w	8004e9c <_svfprintf_r+0xf0c>
 80044b2:	9d09      	ldr	r5, [sp, #36]	; 0x24
 80044b4:	ebc8 0505 	rsb	r5, r8, r5
 80044b8:	9510      	str	r5, [sp, #64]	; 0x40
 80044ba:	e6a2      	b.n	8004202 <_svfprintf_r+0x272>
 80044bc:	9d0a      	ldr	r5, [sp, #40]	; 0x28
 80044be:	9316      	str	r3, [sp, #88]	; 0x58
 80044c0:	f015 0320 	ands.w	r3, r5, #32
 80044c4:	f000 80b4 	beq.w	8004630 <_svfprintf_r+0x6a0>
 80044c8:	9c14      	ldr	r4, [sp, #80]	; 0x50
 80044ca:	2300      	movs	r3, #0
 80044cc:	1de2      	adds	r2, r4, #7
 80044ce:	f022 0207 	bic.w	r2, r2, #7
 80044d2:	f102 0508 	add.w	r5, r2, #8
 80044d6:	9514      	str	r5, [sp, #80]	; 0x50
 80044d8:	e9d2 4500 	ldrd	r4, r5, [r2]
 80044dc:	e659      	b.n	8004192 <_svfprintf_r+0x202>
 80044de:	f899 3000 	ldrb.w	r3, [r9]
 80044e2:	f109 0401 	add.w	r4, r9, #1
 80044e6:	2b2a      	cmp	r3, #42	; 0x2a
 80044e8:	f000 8791 	beq.w	800540e <_svfprintf_r+0x147e>
 80044ec:	f1a3 0130 	sub.w	r1, r3, #48	; 0x30
 80044f0:	2909      	cmp	r1, #9
 80044f2:	bf82      	ittt	hi
 80044f4:	46a1      	movhi	r9, r4
 80044f6:	2400      	movhi	r4, #0
 80044f8:	940c      	strhi	r4, [sp, #48]	; 0x30
 80044fa:	f63f adb4 	bhi.w	8004066 <_svfprintf_r+0xd6>
 80044fe:	2000      	movs	r0, #0
 8004500:	eb00 0080 	add.w	r0, r0, r0, lsl #2
 8004504:	f814 3b01 	ldrb.w	r3, [r4], #1
 8004508:	eb01 0040 	add.w	r0, r1, r0, lsl #1
 800450c:	f1a3 0130 	sub.w	r1, r3, #48	; 0x30
 8004510:	2909      	cmp	r1, #9
 8004512:	d9f5      	bls.n	8004500 <_svfprintf_r+0x570>
 8004514:	ea40 70e0 	orr.w	r0, r0, r0, asr #31
 8004518:	46a1      	mov	r9, r4
 800451a:	900c      	str	r0, [sp, #48]	; 0x30
 800451c:	e5a3      	b.n	8004066 <_svfprintf_r+0xd6>
 800451e:	9d0a      	ldr	r5, [sp, #40]	; 0x28
 8004520:	9316      	str	r3, [sp, #88]	; 0x58
 8004522:	f045 0510 	orr.w	r5, r5, #16
 8004526:	950a      	str	r5, [sp, #40]	; 0x28
 8004528:	9c0a      	ldr	r4, [sp, #40]	; 0x28
 800452a:	06a3      	lsls	r3, r4, #26
 800452c:	f53f ae27 	bmi.w	800417e <_svfprintf_r+0x1ee>
 8004530:	9d0a      	ldr	r5, [sp, #40]	; 0x28
 8004532:	06ed      	lsls	r5, r5, #27
 8004534:	f100 83c4 	bmi.w	8004cc0 <_svfprintf_r+0xd30>
 8004538:	9c0a      	ldr	r4, [sp, #40]	; 0x28
 800453a:	0664      	lsls	r4, r4, #25
 800453c:	f140 83c0 	bpl.w	8004cc0 <_svfprintf_r+0xd30>
 8004540:	9814      	ldr	r0, [sp, #80]	; 0x50
 8004542:	2500      	movs	r5, #0
 8004544:	2301      	movs	r3, #1
 8004546:	3004      	adds	r0, #4
 8004548:	f830 4c04 	ldrh.w	r4, [r0, #-4]
 800454c:	9014      	str	r0, [sp, #80]	; 0x50
 800454e:	e620      	b.n	8004192 <_svfprintf_r+0x202>
 8004550:	9c0a      	ldr	r4, [sp, #40]	; 0x28
 8004552:	9316      	str	r3, [sp, #88]	; 0x58
 8004554:	f044 0410 	orr.w	r4, r4, #16
 8004558:	940a      	str	r4, [sp, #40]	; 0x28
 800455a:	9d0a      	ldr	r5, [sp, #40]	; 0x28
 800455c:	f88d 208f 	strb.w	r2, [sp, #143]	; 0x8f
 8004560:	06a9      	lsls	r1, r5, #26
 8004562:	f140 8165 	bpl.w	8004830 <_svfprintf_r+0x8a0>
 8004566:	9c14      	ldr	r4, [sp, #80]	; 0x50
 8004568:	1de3      	adds	r3, r4, #7
 800456a:	f023 0307 	bic.w	r3, r3, #7
 800456e:	f103 0508 	add.w	r5, r3, #8
 8004572:	9514      	str	r5, [sp, #80]	; 0x50
 8004574:	e9d3 2300 	ldrd	r2, r3, [r3]
 8004578:	4614      	mov	r4, r2
 800457a:	461d      	mov	r5, r3
 800457c:	2a00      	cmp	r2, #0
 800457e:	f173 0000 	sbcs.w	r0, r3, #0
 8004582:	f2c0 83bb 	blt.w	8004cfc <_svfprintf_r+0xd6c>
 8004586:	f89d a08f 	ldrb.w	sl, [sp, #143]	; 0x8f
 800458a:	2301      	movs	r3, #1
 800458c:	e605      	b.n	800419a <_svfprintf_r+0x20a>
 800458e:	bf00      	nop
 8004590:	0800a054 	stmdaeq	r0, {r2, r4, r6, sp, pc}
 8004594:	9c0a      	ldr	r4, [sp, #40]	; 0x28
 8004596:	9316      	str	r3, [sp, #88]	; 0x58
 8004598:	0725      	lsls	r5, r4, #28
 800459a:	f88d 208f 	strb.w	r2, [sp, #143]	; 0x8f
 800459e:	f140 84ab 	bpl.w	8004ef8 <_svfprintf_r+0xf68>
 80045a2:	9d14      	ldr	r5, [sp, #80]	; 0x50
 80045a4:	1deb      	adds	r3, r5, #7
 80045a6:	f023 0307 	bic.w	r3, r3, #7
 80045aa:	f103 0408 	add.w	r4, r3, #8
 80045ae:	9414      	str	r4, [sp, #80]	; 0x50
 80045b0:	681d      	ldr	r5, [r3, #0]
 80045b2:	951b      	str	r5, [sp, #108]	; 0x6c
 80045b4:	685b      	ldr	r3, [r3, #4]
 80045b6:	931c      	str	r3, [sp, #112]	; 0x70
 80045b8:	981b      	ldr	r0, [sp, #108]	; 0x6c
 80045ba:	991c      	ldr	r1, [sp, #112]	; 0x70
 80045bc:	f003 f802 	bl	80075c4 <__fpclassifyd>
 80045c0:	2801      	cmp	r0, #1
 80045c2:	981b      	ldr	r0, [sp, #108]	; 0x6c
 80045c4:	f040 8478 	bne.w	8004eb8 <_svfprintf_r+0xf28>
 80045c8:	2200      	movs	r2, #0
 80045ca:	2300      	movs	r3, #0
 80045cc:	991c      	ldr	r1, [sp, #112]	; 0x70
 80045ce:	f005 f953 	bl	8009878 <__aeabi_dcmplt>
 80045d2:	2800      	cmp	r0, #0
 80045d4:	f040 864a 	bne.w	800526c <_svfprintf_r+0x12dc>
 80045d8:	f89d a08f 	ldrb.w	sl, [sp, #143]	; 0x8f
 80045dc:	2503      	movs	r5, #3
 80045de:	2400      	movs	r4, #0
 80045e0:	f24a 28a0 	movw	r8, #41632	; 0xa2a0
 80045e4:	f24a 239c 	movw	r3, #41628	; 0xa29c
 80045e8:	950d      	str	r5, [sp, #52]	; 0x34
 80045ea:	f6c0 0800 	movt	r8, #2048	; 0x800
 80045ee:	9d0a      	ldr	r5, [sp, #40]	; 0x28
 80045f0:	f6c0 0300 	movt	r3, #2048	; 0x800
 80045f4:	940c      	str	r4, [sp, #48]	; 0x30
 80045f6:	9c16      	ldr	r4, [sp, #88]	; 0x58
 80045f8:	f025 0580 	bic.w	r5, r5, #128	; 0x80
 80045fc:	950a      	str	r5, [sp, #40]	; 0x28
 80045fe:	2503      	movs	r5, #3
 8004600:	2c47      	cmp	r4, #71	; 0x47
 8004602:	bfd8      	it	le
 8004604:	4698      	movle	r8, r3
 8004606:	9510      	str	r5, [sp, #64]	; 0x40
 8004608:	2400      	movs	r4, #0
 800460a:	9418      	str	r4, [sp, #96]	; 0x60
 800460c:	e601      	b.n	8004212 <_svfprintf_r+0x282>
 800460e:	9d0a      	ldr	r5, [sp, #40]	; 0x28
 8004610:	f045 0508 	orr.w	r5, r5, #8
 8004614:	950a      	str	r5, [sp, #40]	; 0x28
 8004616:	f899 3000 	ldrb.w	r3, [r9]
 800461a:	e522      	b.n	8004062 <_svfprintf_r+0xd2>
 800461c:	9c0a      	ldr	r4, [sp, #40]	; 0x28
 800461e:	9316      	str	r3, [sp, #88]	; 0x58
 8004620:	f044 0410 	orr.w	r4, r4, #16
 8004624:	940a      	str	r4, [sp, #40]	; 0x28
 8004626:	9d0a      	ldr	r5, [sp, #40]	; 0x28
 8004628:	f015 0320 	ands.w	r3, r5, #32
 800462c:	f47f af4c 	bne.w	80044c8 <_svfprintf_r+0x538>
 8004630:	9c0a      	ldr	r4, [sp, #40]	; 0x28
 8004632:	f014 0210 	ands.w	r2, r4, #16
 8004636:	f040 834c 	bne.w	8004cd2 <_svfprintf_r+0xd42>
 800463a:	9c0a      	ldr	r4, [sp, #40]	; 0x28
 800463c:	f014 0340 	ands.w	r3, r4, #64	; 0x40
 8004640:	f000 8347 	beq.w	8004cd2 <_svfprintf_r+0xd42>
 8004644:	9814      	ldr	r0, [sp, #80]	; 0x50
 8004646:	4613      	mov	r3, r2
 8004648:	2500      	movs	r5, #0
 800464a:	3004      	adds	r0, #4
 800464c:	f830 4c04 	ldrh.w	r4, [r0, #-4]
 8004650:	9014      	str	r0, [sp, #80]	; 0x50
 8004652:	e59e      	b.n	8004192 <_svfprintf_r+0x202>
 8004654:	9d0a      	ldr	r5, [sp, #40]	; 0x28
 8004656:	f045 0520 	orr.w	r5, r5, #32
 800465a:	950a      	str	r5, [sp, #40]	; 0x28
 800465c:	f899 3000 	ldrb.w	r3, [r9]
 8004660:	e4ff      	b.n	8004062 <_svfprintf_r+0xd2>
 8004662:	9c14      	ldr	r4, [sp, #80]	; 0x50
 8004664:	2500      	movs	r5, #0
 8004666:	9316      	str	r3, [sp, #88]	; 0x58
 8004668:	3404      	adds	r4, #4
 800466a:	f88d 508f 	strb.w	r5, [sp, #143]	; 0x8f
 800466e:	f854 8c04 	ldr.w	r8, [r4, #-4]
 8004672:	f1b8 0f00 	cmp.w	r8, #0
 8004676:	f000 85d9 	beq.w	800522c <_svfprintf_r+0x129c>
 800467a:	980c      	ldr	r0, [sp, #48]	; 0x30
 800467c:	2800      	cmp	r0, #0
 800467e:	4640      	mov	r0, r8
 8004680:	f2c0 85ab 	blt.w	80051da <_svfprintf_r+0x124a>
 8004684:	4629      	mov	r1, r5
 8004686:	9a0c      	ldr	r2, [sp, #48]	; 0x30
 8004688:	f002 fa60 	bl	8006b4c <memchr>
 800468c:	2800      	cmp	r0, #0
 800468e:	f000 85ff 	beq.w	8005290 <_svfprintf_r+0x1300>
 8004692:	9414      	str	r4, [sp, #80]	; 0x50
 8004694:	ebc8 0000 	rsb	r0, r8, r0
 8004698:	9c0c      	ldr	r4, [sp, #48]	; 0x30
 800469a:	950c      	str	r5, [sp, #48]	; 0x30
 800469c:	42a0      	cmp	r0, r4
 800469e:	bfb8      	it	lt
 80046a0:	4604      	movlt	r4, r0
 80046a2:	9410      	str	r4, [sp, #64]	; 0x40
 80046a4:	ea24 75e4 	bic.w	r5, r4, r4, asr #31
 80046a8:	9c0c      	ldr	r4, [sp, #48]	; 0x30
 80046aa:	950d      	str	r5, [sp, #52]	; 0x34
 80046ac:	f89d a08f 	ldrb.w	sl, [sp, #143]	; 0x8f
 80046b0:	9418      	str	r4, [sp, #96]	; 0x60
 80046b2:	e5ae      	b.n	8004212 <_svfprintf_r+0x282>
 80046b4:	9d0a      	ldr	r5, [sp, #40]	; 0x28
 80046b6:	f24a 24c0 	movw	r4, #41664	; 0xa2c0
 80046ba:	f6c0 0400 	movt	r4, #2048	; 0x800
 80046be:	9316      	str	r3, [sp, #88]	; 0x58
 80046c0:	06a8      	lsls	r0, r5, #26
 80046c2:	f88d 208f 	strb.w	r2, [sp, #143]	; 0x8f
 80046c6:	9419      	str	r4, [sp, #100]	; 0x64
 80046c8:	f140 809c 	bpl.w	8004804 <_svfprintf_r+0x874>
 80046cc:	9c14      	ldr	r4, [sp, #80]	; 0x50
 80046ce:	1de3      	adds	r3, r4, #7
 80046d0:	f023 0307 	bic.w	r3, r3, #7
 80046d4:	f103 0508 	add.w	r5, r3, #8
 80046d8:	9514      	str	r5, [sp, #80]	; 0x50
 80046da:	e9d3 4500 	ldrd	r4, r5, [r3]
 80046de:	980a      	ldr	r0, [sp, #40]	; 0x28
 80046e0:	07c3      	lsls	r3, r0, #31
 80046e2:	f140 8227 	bpl.w	8004b34 <_svfprintf_r+0xba4>
 80046e6:	ea54 0105 	orrs.w	r1, r4, r5
 80046ea:	f000 8223 	beq.w	8004b34 <_svfprintf_r+0xba4>
 80046ee:	9a16      	ldr	r2, [sp, #88]	; 0x58
 80046f0:	2330      	movs	r3, #48	; 0x30
 80046f2:	f040 0002 	orr.w	r0, r0, #2
 80046f6:	f88d 3090 	strb.w	r3, [sp, #144]	; 0x90
 80046fa:	900a      	str	r0, [sp, #40]	; 0x28
 80046fc:	2302      	movs	r3, #2
 80046fe:	f88d 2091 	strb.w	r2, [sp, #145]	; 0x91
 8004702:	e546      	b.n	8004192 <_svfprintf_r+0x202>
 8004704:	f899 3000 	ldrb.w	r3, [r9]
 8004708:	222b      	movs	r2, #43	; 0x2b
 800470a:	e4aa      	b.n	8004062 <_svfprintf_r+0xd2>
 800470c:	f899 3000 	ldrb.w	r3, [r9]
 8004710:	4649      	mov	r1, r9
 8004712:	2b6c      	cmp	r3, #108	; 0x6c
 8004714:	bf05      	ittet	eq
 8004716:	f109 0901 	addeq.w	r9, r9, #1
 800471a:	9d0a      	ldreq	r5, [sp, #40]	; 0x28
 800471c:	9c0a      	ldrne	r4, [sp, #40]	; 0x28
 800471e:	f045 0520 	orreq.w	r5, r5, #32
 8004722:	bf0b      	itete	eq
 8004724:	784b      	ldrbeq	r3, [r1, #1]
 8004726:	f044 0410 	orrne.w	r4, r4, #16
 800472a:	950a      	streq	r5, [sp, #40]	; 0x28
 800472c:	940a      	strne	r4, [sp, #40]	; 0x28
 800472e:	e498      	b.n	8004062 <_svfprintf_r+0xd2>
 8004730:	9d0a      	ldr	r5, [sp, #40]	; 0x28
 8004732:	f88d 208f 	strb.w	r2, [sp, #143]	; 0x8f
 8004736:	06a9      	lsls	r1, r5, #26
 8004738:	f140 83eb 	bpl.w	8004f12 <_svfprintf_r+0xf82>
 800473c:	9c14      	ldr	r4, [sp, #80]	; 0x50
 800473e:	6821      	ldr	r1, [r4, #0]
 8004740:	9c12      	ldr	r4, [sp, #72]	; 0x48
 8004742:	4622      	mov	r2, r4
 8004744:	17e5      	asrs	r5, r4, #31
 8004746:	462b      	mov	r3, r5
 8004748:	9d14      	ldr	r5, [sp, #80]	; 0x50
 800474a:	e9c1 2300 	strd	r2, r3, [r1]
 800474e:	3504      	adds	r5, #4
 8004750:	9514      	str	r5, [sp, #80]	; 0x50
 8004752:	e453      	b.n	8003ffc <_svfprintf_r+0x6c>
 8004754:	9a14      	ldr	r2, [sp, #80]	; 0x50
 8004756:	f24a 20c0 	movw	r0, #41664	; 0xa2c0
 800475a:	9d0a      	ldr	r5, [sp, #40]	; 0x28
 800475c:	2378      	movs	r3, #120	; 0x78
 800475e:	f6c0 0000 	movt	r0, #2048	; 0x800
 8004762:	f88d 3091 	strb.w	r3, [sp, #145]	; 0x91
 8004766:	f045 0502 	orr.w	r5, r5, #2
 800476a:	9316      	str	r3, [sp, #88]	; 0x58
 800476c:	950a      	str	r5, [sp, #40]	; 0x28
 800476e:	2330      	movs	r3, #48	; 0x30
 8004770:	1d15      	adds	r5, r2, #4
 8004772:	f88d 3090 	strb.w	r3, [sp, #144]	; 0x90
 8004776:	9514      	str	r5, [sp, #80]	; 0x50
 8004778:	2302      	movs	r3, #2
 800477a:	6814      	ldr	r4, [r2, #0]
 800477c:	2500      	movs	r5, #0
 800477e:	9019      	str	r0, [sp, #100]	; 0x64
 8004780:	e507      	b.n	8004192 <_svfprintf_r+0x202>
 8004782:	9c0a      	ldr	r4, [sp, #40]	; 0x28
 8004784:	f044 0440 	orr.w	r4, r4, #64	; 0x40
 8004788:	940a      	str	r4, [sp, #40]	; 0x28
 800478a:	f899 3000 	ldrb.w	r3, [r9]
 800478e:	e468      	b.n	8004062 <_svfprintf_r+0xd2>
 8004790:	f899 3000 	ldrb.w	r3, [r9]
 8004794:	2a00      	cmp	r2, #0
 8004796:	f47f ac64 	bne.w	8004062 <_svfprintf_r+0xd2>
 800479a:	2220      	movs	r2, #32
 800479c:	e461      	b.n	8004062 <_svfprintf_r+0xd2>
 800479e:	9d0a      	ldr	r5, [sp, #40]	; 0x28
 80047a0:	f045 0501 	orr.w	r5, r5, #1
 80047a4:	950a      	str	r5, [sp, #40]	; 0x28
 80047a6:	f899 3000 	ldrb.w	r3, [r9]
 80047aa:	e45a      	b.n	8004062 <_svfprintf_r+0xd2>
 80047ac:	9c14      	ldr	r4, [sp, #80]	; 0x50
 80047ae:	9d14      	ldr	r5, [sp, #80]	; 0x50
 80047b0:	6824      	ldr	r4, [r4, #0]
 80047b2:	1d2b      	adds	r3, r5, #4
 80047b4:	2c00      	cmp	r4, #0
 80047b6:	9413      	str	r4, [sp, #76]	; 0x4c
 80047b8:	f6ff acb5 	blt.w	8004126 <_svfprintf_r+0x196>
 80047bc:	9314      	str	r3, [sp, #80]	; 0x50
 80047be:	f899 3000 	ldrb.w	r3, [r9]
 80047c2:	e44e      	b.n	8004062 <_svfprintf_r+0xd2>
 80047c4:	9a14      	ldr	r2, [sp, #80]	; 0x50
 80047c6:	2401      	movs	r4, #1
 80047c8:	9d14      	ldr	r5, [sp, #80]	; 0x50
 80047ca:	f10d 08b8 	add.w	r8, sp, #184	; 0xb8
 80047ce:	9316      	str	r3, [sp, #88]	; 0x58
 80047d0:	2300      	movs	r3, #0
 80047d2:	6812      	ldr	r2, [r2, #0]
 80047d4:	3504      	adds	r5, #4
 80047d6:	469a      	mov	sl, r3
 80047d8:	940d      	str	r4, [sp, #52]	; 0x34
 80047da:	9514      	str	r5, [sp, #80]	; 0x50
 80047dc:	f88d 308f 	strb.w	r3, [sp, #143]	; 0x8f
 80047e0:	930c      	str	r3, [sp, #48]	; 0x30
 80047e2:	9318      	str	r3, [sp, #96]	; 0x60
 80047e4:	9410      	str	r4, [sp, #64]	; 0x40
 80047e6:	f88d 20b8 	strb.w	r2, [sp, #184]	; 0xb8
 80047ea:	e518      	b.n	800421e <_svfprintf_r+0x28e>
 80047ec:	9d0a      	ldr	r5, [sp, #40]	; 0x28
 80047ee:	f24a 24ac 	movw	r4, #41644	; 0xa2ac
 80047f2:	f6c0 0400 	movt	r4, #2048	; 0x800
 80047f6:	9316      	str	r3, [sp, #88]	; 0x58
 80047f8:	06a8      	lsls	r0, r5, #26
 80047fa:	f88d 208f 	strb.w	r2, [sp, #143]	; 0x8f
 80047fe:	9419      	str	r4, [sp, #100]	; 0x64
 8004800:	f53f af64 	bmi.w	80046cc <_svfprintf_r+0x73c>
 8004804:	9c0a      	ldr	r4, [sp, #40]	; 0x28
 8004806:	06e1      	lsls	r1, r4, #27
 8004808:	f100 8253 	bmi.w	8004cb2 <_svfprintf_r+0xd22>
 800480c:	9c0a      	ldr	r4, [sp, #40]	; 0x28
 800480e:	0662      	lsls	r2, r4, #25
 8004810:	f140 824f 	bpl.w	8004cb2 <_svfprintf_r+0xd22>
 8004814:	9814      	ldr	r0, [sp, #80]	; 0x50
 8004816:	2500      	movs	r5, #0
 8004818:	3004      	adds	r0, #4
 800481a:	f830 4c04 	ldrh.w	r4, [r0, #-4]
 800481e:	9014      	str	r0, [sp, #80]	; 0x50
 8004820:	e75d      	b.n	80046de <_svfprintf_r+0x74e>
 8004822:	9d0a      	ldr	r5, [sp, #40]	; 0x28
 8004824:	9316      	str	r3, [sp, #88]	; 0x58
 8004826:	06a9      	lsls	r1, r5, #26
 8004828:	f88d 208f 	strb.w	r2, [sp, #143]	; 0x8f
 800482c:	f53f ae9b 	bmi.w	8004566 <_svfprintf_r+0x5d6>
 8004830:	9c0a      	ldr	r4, [sp, #40]	; 0x28
 8004832:	06e2      	lsls	r2, r4, #27
 8004834:	f100 8255 	bmi.w	8004ce2 <_svfprintf_r+0xd52>
 8004838:	9c0a      	ldr	r4, [sp, #40]	; 0x28
 800483a:	0663      	lsls	r3, r4, #25
 800483c:	f140 8251 	bpl.w	8004ce2 <_svfprintf_r+0xd52>
 8004840:	9814      	ldr	r0, [sp, #80]	; 0x50
 8004842:	3004      	adds	r0, #4
 8004844:	f930 4c04 	ldrsh.w	r4, [r0, #-4]
 8004848:	9014      	str	r0, [sp, #80]	; 0x50
 800484a:	4622      	mov	r2, r4
 800484c:	17e5      	asrs	r5, r4, #31
 800484e:	462b      	mov	r3, r5
 8004850:	e694      	b.n	800457c <_svfprintf_r+0x5ec>
 8004852:	9d0a      	ldr	r5, [sp, #40]	; 0x28
 8004854:	f045 0580 	orr.w	r5, r5, #128	; 0x80
 8004858:	950a      	str	r5, [sp, #40]	; 0x28
 800485a:	f899 3000 	ldrb.w	r3, [r9]
 800485e:	e400      	b.n	8004062 <_svfprintf_r+0xd2>
 8004860:	2400      	movs	r4, #0
 8004862:	f1a3 0130 	sub.w	r1, r3, #48	; 0x30
 8004866:	4620      	mov	r0, r4
 8004868:	9413      	str	r4, [sp, #76]	; 0x4c
 800486a:	eb00 0080 	add.w	r0, r0, r0, lsl #2
 800486e:	f819 3b01 	ldrb.w	r3, [r9], #1
 8004872:	eb01 0040 	add.w	r0, r1, r0, lsl #1
 8004876:	f1a3 0130 	sub.w	r1, r3, #48	; 0x30
 800487a:	2909      	cmp	r1, #9
 800487c:	d9f5      	bls.n	800486a <_svfprintf_r+0x8da>
 800487e:	9013      	str	r0, [sp, #76]	; 0x4c
 8004880:	f7ff bbf1 	b.w	8004066 <_svfprintf_r+0xd6>
 8004884:	9316      	str	r3, [sp, #88]	; 0x58
 8004886:	f88d 208f 	strb.w	r2, [sp, #143]	; 0x8f
 800488a:	2b00      	cmp	r3, #0
 800488c:	f43f ac5e 	beq.w	800414c <_svfprintf_r+0x1bc>
 8004890:	9c16      	ldr	r4, [sp, #88]	; 0x58
 8004892:	2300      	movs	r3, #0
 8004894:	2501      	movs	r5, #1
 8004896:	469a      	mov	sl, r3
 8004898:	950d      	str	r5, [sp, #52]	; 0x34
 800489a:	f10d 08b8 	add.w	r8, sp, #184	; 0xb8
 800489e:	f88d 40b8 	strb.w	r4, [sp, #184]	; 0xb8
 80048a2:	f88d 308f 	strb.w	r3, [sp, #143]	; 0x8f
 80048a6:	930c      	str	r3, [sp, #48]	; 0x30
 80048a8:	9318      	str	r3, [sp, #96]	; 0x60
 80048aa:	9510      	str	r5, [sp, #64]	; 0x40
 80048ac:	e4b7      	b.n	800421e <_svfprintf_r+0x28e>
 80048ae:	980e      	ldr	r0, [sp, #56]	; 0x38
 80048b0:	aa2b      	add	r2, sp, #172	; 0xac
 80048b2:	990b      	ldr	r1, [sp, #44]	; 0x2c
 80048b4:	f003 f810 	bl	80078d8 <__ssprint_r>
 80048b8:	2800      	cmp	r0, #0
 80048ba:	f47f ac4e 	bne.w	800415a <_svfprintf_r+0x1ca>
 80048be:	f89d a08f 	ldrb.w	sl, [sp, #143]	; 0x8f
 80048c2:	af38      	add	r7, sp, #224	; 0xe0
 80048c4:	9c2d      	ldr	r4, [sp, #180]	; 0xb4
 80048c6:	e509      	b.n	80042dc <_svfprintf_r+0x34c>
 80048c8:	9d16      	ldr	r5, [sp, #88]	; 0x58
 80048ca:	2d65      	cmp	r5, #101	; 0x65
 80048cc:	f340 80b9 	ble.w	8004a42 <_svfprintf_r+0xab2>
 80048d0:	981b      	ldr	r0, [sp, #108]	; 0x6c
 80048d2:	2200      	movs	r2, #0
 80048d4:	2300      	movs	r3, #0
 80048d6:	991c      	ldr	r1, [sp, #112]	; 0x70
 80048d8:	f004 ffc4 	bl	8009864 <__aeabi_dcmpeq>
 80048dc:	2800      	cmp	r0, #0
 80048de:	f000 812c 	beq.w	8004b3a <_svfprintf_r+0xbaa>
 80048e2:	9b2c      	ldr	r3, [sp, #176]	; 0xb0
 80048e4:	2201      	movs	r2, #1
 80048e6:	9d17      	ldr	r5, [sp, #92]	; 0x5c
 80048e8:	3401      	adds	r4, #1
 80048ea:	4413      	add	r3, r2
 80048ec:	607a      	str	r2, [r7, #4]
 80048ee:	2b07      	cmp	r3, #7
 80048f0:	942d      	str	r4, [sp, #180]	; 0xb4
 80048f2:	603d      	str	r5, [r7, #0]
 80048f4:	bfd8      	it	le
 80048f6:	3708      	addle	r7, #8
 80048f8:	932c      	str	r3, [sp, #176]	; 0xb0
 80048fa:	f300 8316 	bgt.w	8004f2a <_svfprintf_r+0xf9a>
 80048fe:	9b25      	ldr	r3, [sp, #148]	; 0x94
 8004900:	9d11      	ldr	r5, [sp, #68]	; 0x44
 8004902:	42ab      	cmp	r3, r5
 8004904:	db03      	blt.n	800490e <_svfprintf_r+0x97e>
 8004906:	9d0a      	ldr	r5, [sp, #40]	; 0x28
 8004908:	07ed      	lsls	r5, r5, #31
 800490a:	f57f ad68 	bpl.w	80043de <_svfprintf_r+0x44e>
 800490e:	9d1d      	ldr	r5, [sp, #116]	; 0x74
 8004910:	9b2c      	ldr	r3, [sp, #176]	; 0xb0
 8004912:	442c      	add	r4, r5
 8004914:	9d1a      	ldr	r5, [sp, #104]	; 0x68
 8004916:	3301      	adds	r3, #1
 8004918:	942d      	str	r4, [sp, #180]	; 0xb4
 800491a:	2b07      	cmp	r3, #7
 800491c:	932c      	str	r3, [sp, #176]	; 0xb0
 800491e:	603d      	str	r5, [r7, #0]
 8004920:	9d1d      	ldr	r5, [sp, #116]	; 0x74
 8004922:	607d      	str	r5, [r7, #4]
 8004924:	bfd8      	it	le
 8004926:	3708      	addle	r7, #8
 8004928:	f300 835e 	bgt.w	8004fe8 <_svfprintf_r+0x1058>
 800492c:	9d11      	ldr	r5, [sp, #68]	; 0x44
 800492e:	f105 38ff 	add.w	r8, r5, #4294967295
 8004932:	f1b8 0f00 	cmp.w	r8, #0
 8004936:	f77f ad52 	ble.w	80043de <_svfprintf_r+0x44e>
 800493a:	f1b8 0f10 	cmp.w	r8, #16
 800493e:	9b2c      	ldr	r3, [sp, #176]	; 0xb0
 8004940:	f340 81aa 	ble.w	8004c98 <_svfprintf_r+0xd08>
 8004944:	4dac      	ldr	r5, [pc, #688]	; (8004bf8 <_svfprintf_r+0xc68>)
 8004946:	f04f 0a10 	mov.w	sl, #16
 800494a:	f8dd b02c 	ldr.w	fp, [sp, #44]	; 0x2c
 800494e:	950f      	str	r5, [sp, #60]	; 0x3c
 8004950:	9d0e      	ldr	r5, [sp, #56]	; 0x38
 8004952:	e005      	b.n	8004960 <_svfprintf_r+0x9d0>
 8004954:	f1a8 0810 	sub.w	r8, r8, #16
 8004958:	f1b8 0f10 	cmp.w	r8, #16
 800495c:	f340 819e 	ble.w	8004c9c <_svfprintf_r+0xd0c>
 8004960:	3301      	adds	r3, #1
 8004962:	3410      	adds	r4, #16
 8004964:	2b07      	cmp	r3, #7
 8004966:	e887 0440 	stmia.w	r7, {r6, sl}
 800496a:	932c      	str	r3, [sp, #176]	; 0xb0
 800496c:	f107 0708 	add.w	r7, r7, #8
 8004970:	942d      	str	r4, [sp, #180]	; 0xb4
 8004972:	ddef      	ble.n	8004954 <_svfprintf_r+0x9c4>
 8004974:	4628      	mov	r0, r5
 8004976:	4659      	mov	r1, fp
 8004978:	aa2b      	add	r2, sp, #172	; 0xac
 800497a:	af38      	add	r7, sp, #224	; 0xe0
 800497c:	f002 ffac 	bl	80078d8 <__ssprint_r>
 8004980:	2800      	cmp	r0, #0
 8004982:	f47f abea 	bne.w	800415a <_svfprintf_r+0x1ca>
 8004986:	9c2d      	ldr	r4, [sp, #180]	; 0xb4
 8004988:	9b2c      	ldr	r3, [sp, #176]	; 0xb0
 800498a:	e7e3      	b.n	8004954 <_svfprintf_r+0x9c4>
 800498c:	2b00      	cmp	r3, #0
 800498e:	f040 80b4 	bne.w	8004afa <_svfprintf_r+0xb6a>
 8004992:	9c0a      	ldr	r4, [sp, #40]	; 0x28
 8004994:	07e2      	lsls	r2, r4, #31
 8004996:	bf5c      	itt	pl
 8004998:	9310      	strpl	r3, [sp, #64]	; 0x40
 800499a:	f10d 08e0 	addpl.w	r8, sp, #224	; 0xe0
 800499e:	f57f ac30 	bpl.w	8004202 <_svfprintf_r+0x272>
 80049a2:	9d21      	ldr	r5, [sp, #132]	; 0x84
 80049a4:	2330      	movs	r3, #48	; 0x30
 80049a6:	f10d 08df 	add.w	r8, sp, #223	; 0xdf
 80049aa:	f88d 30df 	strb.w	r3, [sp, #223]	; 0xdf
 80049ae:	9510      	str	r5, [sp, #64]	; 0x40
 80049b0:	e427      	b.n	8004202 <_svfprintf_r+0x272>
 80049b2:	9813      	ldr	r0, [sp, #76]	; 0x4c
 80049b4:	990d      	ldr	r1, [sp, #52]	; 0x34
 80049b6:	1a45      	subs	r5, r0, r1
 80049b8:	2d00      	cmp	r5, #0
 80049ba:	f77f acb4 	ble.w	8004326 <_svfprintf_r+0x396>
 80049be:	2d10      	cmp	r5, #16
 80049c0:	9b2c      	ldr	r3, [sp, #176]	; 0xb0
 80049c2:	bfdc      	itt	le
 80049c4:	4a8c      	ldrle	r2, [pc, #560]	; (8004bf8 <_svfprintf_r+0xc68>)
 80049c6:	920f      	strle	r2, [sp, #60]	; 0x3c
 80049c8:	dd24      	ble.n	8004a14 <_svfprintf_r+0xa84>
 80049ca:	488b      	ldr	r0, [pc, #556]	; (8004bf8 <_svfprintf_r+0xc68>)
 80049cc:	4622      	mov	r2, r4
 80049ce:	f04f 0b10 	mov.w	fp, #16
 80049d2:	f8dd a038 	ldr.w	sl, [sp, #56]	; 0x38
 80049d6:	9c0b      	ldr	r4, [sp, #44]	; 0x2c
 80049d8:	900f      	str	r0, [sp, #60]	; 0x3c
 80049da:	e002      	b.n	80049e2 <_svfprintf_r+0xa52>
 80049dc:	3d10      	subs	r5, #16
 80049de:	2d10      	cmp	r5, #16
 80049e0:	dd17      	ble.n	8004a12 <_svfprintf_r+0xa82>
 80049e2:	3301      	adds	r3, #1
 80049e4:	3210      	adds	r2, #16
 80049e6:	2b07      	cmp	r3, #7
 80049e8:	e887 0840 	stmia.w	r7, {r6, fp}
 80049ec:	932c      	str	r3, [sp, #176]	; 0xb0
 80049ee:	f107 0708 	add.w	r7, r7, #8
 80049f2:	922d      	str	r2, [sp, #180]	; 0xb4
 80049f4:	ddf2      	ble.n	80049dc <_svfprintf_r+0xa4c>
 80049f6:	4650      	mov	r0, sl
 80049f8:	4621      	mov	r1, r4
 80049fa:	aa2b      	add	r2, sp, #172	; 0xac
 80049fc:	af38      	add	r7, sp, #224	; 0xe0
 80049fe:	f002 ff6b 	bl	80078d8 <__ssprint_r>
 8004a02:	2800      	cmp	r0, #0
 8004a04:	f47f aba9 	bne.w	800415a <_svfprintf_r+0x1ca>
 8004a08:	3d10      	subs	r5, #16
 8004a0a:	9a2d      	ldr	r2, [sp, #180]	; 0xb4
 8004a0c:	2d10      	cmp	r5, #16
 8004a0e:	9b2c      	ldr	r3, [sp, #176]	; 0xb0
 8004a10:	dce7      	bgt.n	80049e2 <_svfprintf_r+0xa52>
 8004a12:	4614      	mov	r4, r2
 8004a14:	3301      	adds	r3, #1
 8004a16:	990f      	ldr	r1, [sp, #60]	; 0x3c
 8004a18:	2b07      	cmp	r3, #7
 8004a1a:	442c      	add	r4, r5
 8004a1c:	932c      	str	r3, [sp, #176]	; 0xb0
 8004a1e:	e887 0022 	stmia.w	r7, {r1, r5}
 8004a22:	bfd8      	it	le
 8004a24:	3708      	addle	r7, #8
 8004a26:	942d      	str	r4, [sp, #180]	; 0xb4
 8004a28:	f77f ac7d 	ble.w	8004326 <_svfprintf_r+0x396>
 8004a2c:	980e      	ldr	r0, [sp, #56]	; 0x38
 8004a2e:	aa2b      	add	r2, sp, #172	; 0xac
 8004a30:	990b      	ldr	r1, [sp, #44]	; 0x2c
 8004a32:	f002 ff51 	bl	80078d8 <__ssprint_r>
 8004a36:	2800      	cmp	r0, #0
 8004a38:	f47f ab8f 	bne.w	800415a <_svfprintf_r+0x1ca>
 8004a3c:	9c2d      	ldr	r4, [sp, #180]	; 0xb4
 8004a3e:	af38      	add	r7, sp, #224	; 0xe0
 8004a40:	e471      	b.n	8004326 <_svfprintf_r+0x396>
 8004a42:	9d11      	ldr	r5, [sp, #68]	; 0x44
 8004a44:	9b2c      	ldr	r3, [sp, #176]	; 0xb0
 8004a46:	2d01      	cmp	r5, #1
 8004a48:	f340 81e2 	ble.w	8004e10 <_svfprintf_r+0xe80>
 8004a4c:	2101      	movs	r1, #1
 8004a4e:	1c62      	adds	r2, r4, #1
 8004a50:	440b      	add	r3, r1
 8004a52:	f8c7 8000 	str.w	r8, [r7]
 8004a56:	2b07      	cmp	r3, #7
 8004a58:	6079      	str	r1, [r7, #4]
 8004a5a:	922d      	str	r2, [sp, #180]	; 0xb4
 8004a5c:	bfd8      	it	le
 8004a5e:	3708      	addle	r7, #8
 8004a60:	932c      	str	r3, [sp, #176]	; 0xb0
 8004a62:	f300 81f4 	bgt.w	8004e4e <_svfprintf_r+0xebe>
 8004a66:	9d1a      	ldr	r5, [sp, #104]	; 0x68
 8004a68:	1c5c      	adds	r4, r3, #1
 8004a6a:	f8dd a074 	ldr.w	sl, [sp, #116]	; 0x74
 8004a6e:	2c07      	cmp	r4, #7
 8004a70:	942c      	str	r4, [sp, #176]	; 0xb0
 8004a72:	603d      	str	r5, [r7, #0]
 8004a74:	4492      	add	sl, r2
 8004a76:	9d1d      	ldr	r5, [sp, #116]	; 0x74
 8004a78:	f8cd a0b4 	str.w	sl, [sp, #180]	; 0xb4
 8004a7c:	607d      	str	r5, [r7, #4]
 8004a7e:	bfd8      	it	le
 8004a80:	3708      	addle	r7, #8
 8004a82:	f300 81d7 	bgt.w	8004e34 <_svfprintf_r+0xea4>
 8004a86:	981b      	ldr	r0, [sp, #108]	; 0x6c
 8004a88:	2200      	movs	r2, #0
 8004a8a:	2300      	movs	r3, #0
 8004a8c:	991c      	ldr	r1, [sp, #112]	; 0x70
 8004a8e:	f004 fee9 	bl	8009864 <__aeabi_dcmpeq>
 8004a92:	2800      	cmp	r0, #0
 8004a94:	f040 80b2 	bne.w	8004bfc <_svfprintf_r+0xc6c>
 8004a98:	3401      	adds	r4, #1
 8004a9a:	9d11      	ldr	r5, [sp, #68]	; 0x44
 8004a9c:	2c07      	cmp	r4, #7
 8004a9e:	f108 0201 	add.w	r2, r8, #1
 8004aa2:	f105 33ff 	add.w	r3, r5, #4294967295
 8004aa6:	942c      	str	r4, [sp, #176]	; 0xb0
 8004aa8:	449a      	add	sl, r3
 8004aaa:	603a      	str	r2, [r7, #0]
 8004aac:	f8cd a0b4 	str.w	sl, [sp, #180]	; 0xb4
 8004ab0:	607b      	str	r3, [r7, #4]
 8004ab2:	f300 80e4 	bgt.w	8004c7e <_svfprintf_r+0xcee>
 8004ab6:	3708      	adds	r7, #8
 8004ab8:	1c63      	adds	r3, r4, #1
 8004aba:	9d1e      	ldr	r5, [sp, #120]	; 0x78
 8004abc:	9c1e      	ldr	r4, [sp, #120]	; 0x78
 8004abe:	2b07      	cmp	r3, #7
 8004ac0:	aa27      	add	r2, sp, #156	; 0x9c
 8004ac2:	932c      	str	r3, [sp, #176]	; 0xb0
 8004ac4:	4454      	add	r4, sl
 8004ac6:	e887 0024 	stmia.w	r7, {r2, r5}
 8004aca:	942d      	str	r4, [sp, #180]	; 0xb4
 8004acc:	f77f ac86 	ble.w	80043dc <_svfprintf_r+0x44c>
 8004ad0:	980e      	ldr	r0, [sp, #56]	; 0x38
 8004ad2:	aa2b      	add	r2, sp, #172	; 0xac
 8004ad4:	990b      	ldr	r1, [sp, #44]	; 0x2c
 8004ad6:	f002 feff 	bl	80078d8 <__ssprint_r>
 8004ada:	2800      	cmp	r0, #0
 8004adc:	f47f ab3d 	bne.w	800415a <_svfprintf_r+0x1ca>
 8004ae0:	9c2d      	ldr	r4, [sp, #180]	; 0xb4
 8004ae2:	af38      	add	r7, sp, #224	; 0xe0
 8004ae4:	e47b      	b.n	80043de <_svfprintf_r+0x44e>
 8004ae6:	980e      	ldr	r0, [sp, #56]	; 0x38
 8004ae8:	aa2b      	add	r2, sp, #172	; 0xac
 8004aea:	990b      	ldr	r1, [sp, #44]	; 0x2c
 8004aec:	f002 fef4 	bl	80078d8 <__ssprint_r>
 8004af0:	2800      	cmp	r0, #0
 8004af2:	f43f acc3 	beq.w	800447c <_svfprintf_r+0x4ec>
 8004af6:	f7ff bb30 	b.w	800415a <_svfprintf_r+0x1ca>
 8004afa:	9210      	str	r2, [sp, #64]	; 0x40
 8004afc:	f10d 08e0 	add.w	r8, sp, #224	; 0xe0
 8004b00:	f7ff bb7f 	b.w	8004202 <_svfprintf_r+0x272>
 8004b04:	980e      	ldr	r0, [sp, #56]	; 0x38
 8004b06:	aa2b      	add	r2, sp, #172	; 0xac
 8004b08:	990b      	ldr	r1, [sp, #44]	; 0x2c
 8004b0a:	f002 fee5 	bl	80078d8 <__ssprint_r>
 8004b0e:	2800      	cmp	r0, #0
 8004b10:	f47f ab23 	bne.w	800415a <_svfprintf_r+0x1ca>
 8004b14:	9c2d      	ldr	r4, [sp, #180]	; 0xb4
 8004b16:	af38      	add	r7, sp, #224	; 0xe0
 8004b18:	f7ff bbf2 	b.w	8004300 <_svfprintf_r+0x370>
 8004b1c:	980e      	ldr	r0, [sp, #56]	; 0x38
 8004b1e:	aa2b      	add	r2, sp, #172	; 0xac
 8004b20:	990b      	ldr	r1, [sp, #44]	; 0x2c
 8004b22:	f002 fed9 	bl	80078d8 <__ssprint_r>
 8004b26:	2800      	cmp	r0, #0
 8004b28:	f47f ab17 	bne.w	800415a <_svfprintf_r+0x1ca>
 8004b2c:	9c2d      	ldr	r4, [sp, #180]	; 0xb4
 8004b2e:	af38      	add	r7, sp, #224	; 0xe0
 8004b30:	f7ff bbf6 	b.w	8004320 <_svfprintf_r+0x390>
 8004b34:	2302      	movs	r3, #2
 8004b36:	f7ff bb2c 	b.w	8004192 <_svfprintf_r+0x202>
 8004b3a:	9b25      	ldr	r3, [sp, #148]	; 0x94
 8004b3c:	2b00      	cmp	r3, #0
 8004b3e:	f340 81ff 	ble.w	8004f40 <_svfprintf_r+0xfb0>
 8004b42:	9d11      	ldr	r5, [sp, #68]	; 0x44
 8004b44:	9818      	ldr	r0, [sp, #96]	; 0x60
 8004b46:	9911      	ldr	r1, [sp, #68]	; 0x44
 8004b48:	4285      	cmp	r5, r0
 8004b4a:	bfa8      	it	ge
 8004b4c:	4605      	movge	r5, r0
 8004b4e:	2d00      	cmp	r5, #0
 8004b50:	4441      	add	r1, r8
 8004b52:	910c      	str	r1, [sp, #48]	; 0x30
 8004b54:	dd0c      	ble.n	8004b70 <_svfprintf_r+0xbe0>
 8004b56:	9b2c      	ldr	r3, [sp, #176]	; 0xb0
 8004b58:	442c      	add	r4, r5
 8004b5a:	f8c7 8000 	str.w	r8, [r7]
 8004b5e:	3301      	adds	r3, #1
 8004b60:	607d      	str	r5, [r7, #4]
 8004b62:	2b07      	cmp	r3, #7
 8004b64:	942d      	str	r4, [sp, #180]	; 0xb4
 8004b66:	932c      	str	r3, [sp, #176]	; 0xb0
 8004b68:	bfd8      	it	le
 8004b6a:	3708      	addle	r7, #8
 8004b6c:	f300 8343 	bgt.w	80051f6 <_svfprintf_r+0x1266>
 8004b70:	9a18      	ldr	r2, [sp, #96]	; 0x60
 8004b72:	ea25 75e5 	bic.w	r5, r5, r5, asr #31
 8004b76:	ebc5 0a02 	rsb	sl, r5, r2
 8004b7a:	f1ba 0f00 	cmp.w	sl, #0
 8004b7e:	f340 80dd 	ble.w	8004d3c <_svfprintf_r+0xdac>
 8004b82:	f1ba 0f10 	cmp.w	sl, #16
 8004b86:	9b2c      	ldr	r3, [sp, #176]	; 0xb0
 8004b88:	bfdc      	itt	le
 8004b8a:	4d1b      	ldrle	r5, [pc, #108]	; (8004bf8 <_svfprintf_r+0xc68>)
 8004b8c:	950f      	strle	r5, [sp, #60]	; 0x3c
 8004b8e:	f340 80c0 	ble.w	8004d12 <_svfprintf_r+0xd82>
 8004b92:	4d19      	ldr	r5, [pc, #100]	; (8004bf8 <_svfprintf_r+0xc68>)
 8004b94:	4622      	mov	r2, r4
 8004b96:	f04f 0b10 	mov.w	fp, #16
 8004b9a:	9c0b      	ldr	r4, [sp, #44]	; 0x2c
 8004b9c:	950f      	str	r5, [sp, #60]	; 0x3c
 8004b9e:	9d0e      	ldr	r5, [sp, #56]	; 0x38
 8004ba0:	e005      	b.n	8004bae <_svfprintf_r+0xc1e>
 8004ba2:	f1aa 0a10 	sub.w	sl, sl, #16
 8004ba6:	f1ba 0f10 	cmp.w	sl, #16
 8004baa:	f340 80b1 	ble.w	8004d10 <_svfprintf_r+0xd80>
 8004bae:	3301      	adds	r3, #1
 8004bb0:	3210      	adds	r2, #16
 8004bb2:	2b07      	cmp	r3, #7
 8004bb4:	e887 0840 	stmia.w	r7, {r6, fp}
 8004bb8:	932c      	str	r3, [sp, #176]	; 0xb0
 8004bba:	f107 0708 	add.w	r7, r7, #8
 8004bbe:	922d      	str	r2, [sp, #180]	; 0xb4
 8004bc0:	ddef      	ble.n	8004ba2 <_svfprintf_r+0xc12>
 8004bc2:	4628      	mov	r0, r5
 8004bc4:	4621      	mov	r1, r4
 8004bc6:	aa2b      	add	r2, sp, #172	; 0xac
 8004bc8:	af38      	add	r7, sp, #224	; 0xe0
 8004bca:	f002 fe85 	bl	80078d8 <__ssprint_r>
 8004bce:	2800      	cmp	r0, #0
 8004bd0:	f47f aac3 	bne.w	800415a <_svfprintf_r+0x1ca>
 8004bd4:	9a2d      	ldr	r2, [sp, #180]	; 0xb4
 8004bd6:	9b2c      	ldr	r3, [sp, #176]	; 0xb0
 8004bd8:	e7e3      	b.n	8004ba2 <_svfprintf_r+0xc12>
 8004bda:	2d00      	cmp	r5, #0
 8004bdc:	bf08      	it	eq
 8004bde:	2c0a      	cmpeq	r4, #10
 8004be0:	f080 8141 	bcs.w	8004e66 <_svfprintf_r+0xed6>
 8004be4:	9d21      	ldr	r5, [sp, #132]	; 0x84
 8004be6:	3430      	adds	r4, #48	; 0x30
 8004be8:	f10d 08df 	add.w	r8, sp, #223	; 0xdf
 8004bec:	f88d 40df 	strb.w	r4, [sp, #223]	; 0xdf
 8004bf0:	9510      	str	r5, [sp, #64]	; 0x40
 8004bf2:	f7ff bb06 	b.w	8004202 <_svfprintf_r+0x272>
 8004bf6:	bf00      	nop
 8004bf8:	0800a054 	stmdaeq	r0, {r2, r4, r6, sp, pc}
 8004bfc:	9d11      	ldr	r5, [sp, #68]	; 0x44
 8004bfe:	f105 38ff 	add.w	r8, r5, #4294967295
 8004c02:	f1b8 0f00 	cmp.w	r8, #0
 8004c06:	f77f af57 	ble.w	8004ab8 <_svfprintf_r+0xb28>
 8004c0a:	f1b8 0f10 	cmp.w	r8, #16
 8004c0e:	bfdc      	itt	le
 8004c10:	4ba8      	ldrle	r3, [pc, #672]	; (8004eb4 <_svfprintf_r+0xf24>)
 8004c12:	930f      	strle	r3, [sp, #60]	; 0x3c
 8004c14:	dd28      	ble.n	8004c68 <_svfprintf_r+0xcd8>
 8004c16:	4da7      	ldr	r5, [pc, #668]	; (8004eb4 <_svfprintf_r+0xf24>)
 8004c18:	4653      	mov	r3, sl
 8004c1a:	f04f 0b10 	mov.w	fp, #16
 8004c1e:	f8dd a02c 	ldr.w	sl, [sp, #44]	; 0x2c
 8004c22:	950f      	str	r5, [sp, #60]	; 0x3c
 8004c24:	9d0e      	ldr	r5, [sp, #56]	; 0x38
 8004c26:	e004      	b.n	8004c32 <_svfprintf_r+0xca2>
 8004c28:	f1a8 0810 	sub.w	r8, r8, #16
 8004c2c:	f1b8 0f10 	cmp.w	r8, #16
 8004c30:	dd19      	ble.n	8004c66 <_svfprintf_r+0xcd6>
 8004c32:	3401      	adds	r4, #1
 8004c34:	3310      	adds	r3, #16
 8004c36:	2c07      	cmp	r4, #7
 8004c38:	e887 0840 	stmia.w	r7, {r6, fp}
 8004c3c:	942c      	str	r4, [sp, #176]	; 0xb0
 8004c3e:	f107 0708 	add.w	r7, r7, #8
 8004c42:	932d      	str	r3, [sp, #180]	; 0xb4
 8004c44:	ddf0      	ble.n	8004c28 <_svfprintf_r+0xc98>
 8004c46:	4628      	mov	r0, r5
 8004c48:	4651      	mov	r1, sl
 8004c4a:	aa2b      	add	r2, sp, #172	; 0xac
 8004c4c:	af38      	add	r7, sp, #224	; 0xe0
 8004c4e:	f002 fe43 	bl	80078d8 <__ssprint_r>
 8004c52:	2800      	cmp	r0, #0
 8004c54:	f47f aa81 	bne.w	800415a <_svfprintf_r+0x1ca>
 8004c58:	f1a8 0810 	sub.w	r8, r8, #16
 8004c5c:	9b2d      	ldr	r3, [sp, #180]	; 0xb4
 8004c5e:	f1b8 0f10 	cmp.w	r8, #16
 8004c62:	9c2c      	ldr	r4, [sp, #176]	; 0xb0
 8004c64:	dce5      	bgt.n	8004c32 <_svfprintf_r+0xca2>
 8004c66:	469a      	mov	sl, r3
 8004c68:	3401      	adds	r4, #1
 8004c6a:	9b0f      	ldr	r3, [sp, #60]	; 0x3c
 8004c6c:	2c07      	cmp	r4, #7
 8004c6e:	44c2      	add	sl, r8
 8004c70:	942c      	str	r4, [sp, #176]	; 0xb0
 8004c72:	f8cd a0b4 	str.w	sl, [sp, #180]	; 0xb4
 8004c76:	e887 0108 	stmia.w	r7, {r3, r8}
 8004c7a:	f77f af1c 	ble.w	8004ab6 <_svfprintf_r+0xb26>
 8004c7e:	980e      	ldr	r0, [sp, #56]	; 0x38
 8004c80:	aa2b      	add	r2, sp, #172	; 0xac
 8004c82:	990b      	ldr	r1, [sp, #44]	; 0x2c
 8004c84:	f002 fe28 	bl	80078d8 <__ssprint_r>
 8004c88:	2800      	cmp	r0, #0
 8004c8a:	f47f aa66 	bne.w	800415a <_svfprintf_r+0x1ca>
 8004c8e:	f8dd a0b4 	ldr.w	sl, [sp, #180]	; 0xb4
 8004c92:	af38      	add	r7, sp, #224	; 0xe0
 8004c94:	9c2c      	ldr	r4, [sp, #176]	; 0xb0
 8004c96:	e70f      	b.n	8004ab8 <_svfprintf_r+0xb28>
 8004c98:	4d86      	ldr	r5, [pc, #536]	; (8004eb4 <_svfprintf_r+0xf24>)
 8004c9a:	950f      	str	r5, [sp, #60]	; 0x3c
 8004c9c:	3301      	adds	r3, #1
 8004c9e:	9d0f      	ldr	r5, [sp, #60]	; 0x3c
 8004ca0:	2b07      	cmp	r3, #7
 8004ca2:	4444      	add	r4, r8
 8004ca4:	932c      	str	r3, [sp, #176]	; 0xb0
 8004ca6:	942d      	str	r4, [sp, #180]	; 0xb4
 8004ca8:	e887 0120 	stmia.w	r7, {r5, r8}
 8004cac:	f77f ab96 	ble.w	80043dc <_svfprintf_r+0x44c>
 8004cb0:	e70e      	b.n	8004ad0 <_svfprintf_r+0xb40>
 8004cb2:	9d14      	ldr	r5, [sp, #80]	; 0x50
 8004cb4:	3504      	adds	r5, #4
 8004cb6:	f855 4c04 	ldr.w	r4, [r5, #-4]
 8004cba:	9514      	str	r5, [sp, #80]	; 0x50
 8004cbc:	2500      	movs	r5, #0
 8004cbe:	e50e      	b.n	80046de <_svfprintf_r+0x74e>
 8004cc0:	9d14      	ldr	r5, [sp, #80]	; 0x50
 8004cc2:	2301      	movs	r3, #1
 8004cc4:	3504      	adds	r5, #4
 8004cc6:	f855 4c04 	ldr.w	r4, [r5, #-4]
 8004cca:	9514      	str	r5, [sp, #80]	; 0x50
 8004ccc:	2500      	movs	r5, #0
 8004cce:	f7ff ba60 	b.w	8004192 <_svfprintf_r+0x202>
 8004cd2:	9d14      	ldr	r5, [sp, #80]	; 0x50
 8004cd4:	3504      	adds	r5, #4
 8004cd6:	f855 4c04 	ldr.w	r4, [r5, #-4]
 8004cda:	9514      	str	r5, [sp, #80]	; 0x50
 8004cdc:	2500      	movs	r5, #0
 8004cde:	f7ff ba58 	b.w	8004192 <_svfprintf_r+0x202>
 8004ce2:	9d14      	ldr	r5, [sp, #80]	; 0x50
 8004ce4:	3504      	adds	r5, #4
 8004ce6:	f855 4c04 	ldr.w	r4, [r5, #-4]
 8004cea:	9514      	str	r5, [sp, #80]	; 0x50
 8004cec:	4622      	mov	r2, r4
 8004cee:	17e5      	asrs	r5, r4, #31
 8004cf0:	462b      	mov	r3, r5
 8004cf2:	2a00      	cmp	r2, #0
 8004cf4:	f173 0000 	sbcs.w	r0, r3, #0
 8004cf8:	f6bf ac45 	bge.w	8004586 <_svfprintf_r+0x5f6>
 8004cfc:	f04f 0a2d 	mov.w	sl, #45	; 0x2d
 8004d00:	4264      	negs	r4, r4
 8004d02:	eb65 0545 	sbc.w	r5, r5, r5, lsl #1
 8004d06:	f88d a08f 	strb.w	sl, [sp, #143]	; 0x8f
 8004d0a:	2301      	movs	r3, #1
 8004d0c:	f7ff ba45 	b.w	800419a <_svfprintf_r+0x20a>
 8004d10:	4614      	mov	r4, r2
 8004d12:	3301      	adds	r3, #1
 8004d14:	9d0f      	ldr	r5, [sp, #60]	; 0x3c
 8004d16:	2b07      	cmp	r3, #7
 8004d18:	4454      	add	r4, sl
 8004d1a:	932c      	str	r3, [sp, #176]	; 0xb0
 8004d1c:	e887 0420 	stmia.w	r7, {r5, sl}
 8004d20:	bfd8      	it	le
 8004d22:	3708      	addle	r7, #8
 8004d24:	942d      	str	r4, [sp, #180]	; 0xb4
 8004d26:	dd09      	ble.n	8004d3c <_svfprintf_r+0xdac>
 8004d28:	980e      	ldr	r0, [sp, #56]	; 0x38
 8004d2a:	aa2b      	add	r2, sp, #172	; 0xac
 8004d2c:	990b      	ldr	r1, [sp, #44]	; 0x2c
 8004d2e:	f002 fdd3 	bl	80078d8 <__ssprint_r>
 8004d32:	2800      	cmp	r0, #0
 8004d34:	f47f aa11 	bne.w	800415a <_svfprintf_r+0x1ca>
 8004d38:	9c2d      	ldr	r4, [sp, #180]	; 0xb4
 8004d3a:	af38      	add	r7, sp, #224	; 0xe0
 8004d3c:	9d18      	ldr	r5, [sp, #96]	; 0x60
 8004d3e:	9b25      	ldr	r3, [sp, #148]	; 0x94
 8004d40:	44a8      	add	r8, r5
 8004d42:	9d11      	ldr	r5, [sp, #68]	; 0x44
 8004d44:	42ab      	cmp	r3, r5
 8004d46:	db49      	blt.n	8004ddc <_svfprintf_r+0xe4c>
 8004d48:	9d0a      	ldr	r5, [sp, #40]	; 0x28
 8004d4a:	07e9      	lsls	r1, r5, #31
 8004d4c:	d446      	bmi.n	8004ddc <_svfprintf_r+0xe4c>
 8004d4e:	980c      	ldr	r0, [sp, #48]	; 0x30
 8004d50:	9911      	ldr	r1, [sp, #68]	; 0x44
 8004d52:	ebc8 0500 	rsb	r5, r8, r0
 8004d56:	1acb      	subs	r3, r1, r3
 8004d58:	42ab      	cmp	r3, r5
 8004d5a:	bfb8      	it	lt
 8004d5c:	461d      	movlt	r5, r3
 8004d5e:	2d00      	cmp	r5, #0
 8004d60:	dd0c      	ble.n	8004d7c <_svfprintf_r+0xdec>
 8004d62:	9a2c      	ldr	r2, [sp, #176]	; 0xb0
 8004d64:	442c      	add	r4, r5
 8004d66:	f8c7 8000 	str.w	r8, [r7]
 8004d6a:	3201      	adds	r2, #1
 8004d6c:	607d      	str	r5, [r7, #4]
 8004d6e:	2a07      	cmp	r2, #7
 8004d70:	942d      	str	r4, [sp, #180]	; 0xb4
 8004d72:	922c      	str	r2, [sp, #176]	; 0xb0
 8004d74:	bfd8      	it	le
 8004d76:	3708      	addle	r7, #8
 8004d78:	f300 824a 	bgt.w	8005210 <_svfprintf_r+0x1280>
 8004d7c:	ea25 75e5 	bic.w	r5, r5, r5, asr #31
 8004d80:	ebc5 0803 	rsb	r8, r5, r3
 8004d84:	f1b8 0f00 	cmp.w	r8, #0
 8004d88:	f77f ab29 	ble.w	80043de <_svfprintf_r+0x44e>
 8004d8c:	f1b8 0f10 	cmp.w	r8, #16
 8004d90:	9b2c      	ldr	r3, [sp, #176]	; 0xb0
 8004d92:	dd81      	ble.n	8004c98 <_svfprintf_r+0xd08>
 8004d94:	4d47      	ldr	r5, [pc, #284]	; (8004eb4 <_svfprintf_r+0xf24>)
 8004d96:	f04f 0a10 	mov.w	sl, #16
 8004d9a:	f8dd b02c 	ldr.w	fp, [sp, #44]	; 0x2c
 8004d9e:	950f      	str	r5, [sp, #60]	; 0x3c
 8004da0:	9d0e      	ldr	r5, [sp, #56]	; 0x38
 8004da2:	e005      	b.n	8004db0 <_svfprintf_r+0xe20>
 8004da4:	f1a8 0810 	sub.w	r8, r8, #16
 8004da8:	f1b8 0f10 	cmp.w	r8, #16
 8004dac:	f77f af76 	ble.w	8004c9c <_svfprintf_r+0xd0c>
 8004db0:	3301      	adds	r3, #1
 8004db2:	3410      	adds	r4, #16
 8004db4:	2b07      	cmp	r3, #7
 8004db6:	e887 0440 	stmia.w	r7, {r6, sl}
 8004dba:	932c      	str	r3, [sp, #176]	; 0xb0
 8004dbc:	f107 0708 	add.w	r7, r7, #8
 8004dc0:	942d      	str	r4, [sp, #180]	; 0xb4
 8004dc2:	ddef      	ble.n	8004da4 <_svfprintf_r+0xe14>
 8004dc4:	4628      	mov	r0, r5
 8004dc6:	4659      	mov	r1, fp
 8004dc8:	aa2b      	add	r2, sp, #172	; 0xac
 8004dca:	af38      	add	r7, sp, #224	; 0xe0
 8004dcc:	f002 fd84 	bl	80078d8 <__ssprint_r>
 8004dd0:	2800      	cmp	r0, #0
 8004dd2:	f47f a9c2 	bne.w	800415a <_svfprintf_r+0x1ca>
 8004dd6:	9c2d      	ldr	r4, [sp, #180]	; 0xb4
 8004dd8:	9b2c      	ldr	r3, [sp, #176]	; 0xb0
 8004dda:	e7e3      	b.n	8004da4 <_svfprintf_r+0xe14>
 8004ddc:	9d1d      	ldr	r5, [sp, #116]	; 0x74
 8004dde:	9a2c      	ldr	r2, [sp, #176]	; 0xb0
 8004de0:	442c      	add	r4, r5
 8004de2:	9d1a      	ldr	r5, [sp, #104]	; 0x68
 8004de4:	3201      	adds	r2, #1
 8004de6:	942d      	str	r4, [sp, #180]	; 0xb4
 8004de8:	2a07      	cmp	r2, #7
 8004dea:	922c      	str	r2, [sp, #176]	; 0xb0
 8004dec:	603d      	str	r5, [r7, #0]
 8004dee:	9d1d      	ldr	r5, [sp, #116]	; 0x74
 8004df0:	607d      	str	r5, [r7, #4]
 8004df2:	bfd8      	it	le
 8004df4:	3708      	addle	r7, #8
 8004df6:	ddaa      	ble.n	8004d4e <_svfprintf_r+0xdbe>
 8004df8:	980e      	ldr	r0, [sp, #56]	; 0x38
 8004dfa:	aa2b      	add	r2, sp, #172	; 0xac
 8004dfc:	990b      	ldr	r1, [sp, #44]	; 0x2c
 8004dfe:	f002 fd6b 	bl	80078d8 <__ssprint_r>
 8004e02:	2800      	cmp	r0, #0
 8004e04:	f47f a9a9 	bne.w	800415a <_svfprintf_r+0x1ca>
 8004e08:	9b25      	ldr	r3, [sp, #148]	; 0x94
 8004e0a:	af38      	add	r7, sp, #224	; 0xe0
 8004e0c:	9c2d      	ldr	r4, [sp, #180]	; 0xb4
 8004e0e:	e79e      	b.n	8004d4e <_svfprintf_r+0xdbe>
 8004e10:	9d0a      	ldr	r5, [sp, #40]	; 0x28
 8004e12:	07ea      	lsls	r2, r5, #31
 8004e14:	f53f ae1a 	bmi.w	8004a4c <_svfprintf_r+0xabc>
 8004e18:	2201      	movs	r2, #1
 8004e1a:	f104 0a01 	add.w	sl, r4, #1
 8004e1e:	189c      	adds	r4, r3, r2
 8004e20:	f8c7 8000 	str.w	r8, [r7]
 8004e24:	2c07      	cmp	r4, #7
 8004e26:	f8cd a0b4 	str.w	sl, [sp, #180]	; 0xb4
 8004e2a:	942c      	str	r4, [sp, #176]	; 0xb0
 8004e2c:	607a      	str	r2, [r7, #4]
 8004e2e:	f77f ae42 	ble.w	8004ab6 <_svfprintf_r+0xb26>
 8004e32:	e724      	b.n	8004c7e <_svfprintf_r+0xcee>
 8004e34:	980e      	ldr	r0, [sp, #56]	; 0x38
 8004e36:	aa2b      	add	r2, sp, #172	; 0xac
 8004e38:	990b      	ldr	r1, [sp, #44]	; 0x2c
 8004e3a:	f002 fd4d 	bl	80078d8 <__ssprint_r>
 8004e3e:	2800      	cmp	r0, #0
 8004e40:	f47f a98b 	bne.w	800415a <_svfprintf_r+0x1ca>
 8004e44:	f8dd a0b4 	ldr.w	sl, [sp, #180]	; 0xb4
 8004e48:	af38      	add	r7, sp, #224	; 0xe0
 8004e4a:	9c2c      	ldr	r4, [sp, #176]	; 0xb0
 8004e4c:	e61b      	b.n	8004a86 <_svfprintf_r+0xaf6>
 8004e4e:	980e      	ldr	r0, [sp, #56]	; 0x38
 8004e50:	aa2b      	add	r2, sp, #172	; 0xac
 8004e52:	990b      	ldr	r1, [sp, #44]	; 0x2c
 8004e54:	f002 fd40 	bl	80078d8 <__ssprint_r>
 8004e58:	2800      	cmp	r0, #0
 8004e5a:	f47f a97e 	bne.w	800415a <_svfprintf_r+0x1ca>
 8004e5e:	9a2d      	ldr	r2, [sp, #180]	; 0xb4
 8004e60:	af38      	add	r7, sp, #224	; 0xe0
 8004e62:	9b2c      	ldr	r3, [sp, #176]	; 0xb0
 8004e64:	e5ff      	b.n	8004a66 <_svfprintf_r+0xad6>
 8004e66:	f10d 0bdf 	add.w	fp, sp, #223	; 0xdf
 8004e6a:	4620      	mov	r0, r4
 8004e6c:	4629      	mov	r1, r5
 8004e6e:	220a      	movs	r2, #10
 8004e70:	2300      	movs	r3, #0
 8004e72:	f004 fd71 	bl	8009958 <__aeabi_uldivmod>
 8004e76:	46d8      	mov	r8, fp
 8004e78:	4620      	mov	r0, r4
 8004e7a:	4629      	mov	r1, r5
 8004e7c:	2300      	movs	r3, #0
 8004e7e:	f10b 3bff 	add.w	fp, fp, #4294967295
 8004e82:	3230      	adds	r2, #48	; 0x30
 8004e84:	f888 2000 	strb.w	r2, [r8]
 8004e88:	220a      	movs	r2, #10
 8004e8a:	f004 fd65 	bl	8009958 <__aeabi_uldivmod>
 8004e8e:	4604      	mov	r4, r0
 8004e90:	460d      	mov	r5, r1
 8004e92:	ea54 0005 	orrs.w	r0, r4, r5
 8004e96:	d1e8      	bne.n	8004e6a <_svfprintf_r+0xeda>
 8004e98:	f7ff b9af 	b.w	80041fa <_svfprintf_r+0x26a>
 8004e9c:	2b30      	cmp	r3, #48	; 0x30
 8004e9e:	f43f a9ac 	beq.w	80041fa <_svfprintf_r+0x26a>
 8004ea2:	9c09      	ldr	r4, [sp, #36]	; 0x24
 8004ea4:	2330      	movs	r3, #48	; 0x30
 8004ea6:	4690      	mov	r8, r2
 8004ea8:	f801 3c01 	strb.w	r3, [r1, #-1]
 8004eac:	1aa4      	subs	r4, r4, r2
 8004eae:	9410      	str	r4, [sp, #64]	; 0x40
 8004eb0:	f7ff b9a7 	b.w	8004202 <_svfprintf_r+0x272>
 8004eb4:	0800a054 	stmdaeq	r0, {r2, r4, r6, sp, pc}
 8004eb8:	991c      	ldr	r1, [sp, #112]	; 0x70
 8004eba:	f002 fb83 	bl	80075c4 <__fpclassifyd>
 8004ebe:	2800      	cmp	r0, #0
 8004ec0:	f040 80ab 	bne.w	800501a <_svfprintf_r+0x108a>
 8004ec4:	2503      	movs	r5, #3
 8004ec6:	9c0a      	ldr	r4, [sp, #40]	; 0x28
 8004ec8:	f24a 28a8 	movw	r8, #41640	; 0xa2a8
 8004ecc:	f24a 23a4 	movw	r3, #41636	; 0xa2a4
 8004ed0:	950d      	str	r5, [sp, #52]	; 0x34
 8004ed2:	f6c0 0800 	movt	r8, #2048	; 0x800
 8004ed6:	9d16      	ldr	r5, [sp, #88]	; 0x58
 8004ed8:	f6c0 0300 	movt	r3, #2048	; 0x800
 8004edc:	f024 0480 	bic.w	r4, r4, #128	; 0x80
 8004ee0:	900c      	str	r0, [sp, #48]	; 0x30
 8004ee2:	940a      	str	r4, [sp, #40]	; 0x28
 8004ee4:	2d47      	cmp	r5, #71	; 0x47
 8004ee6:	bfd8      	it	le
 8004ee8:	4698      	movle	r8, r3
 8004eea:	2403      	movs	r4, #3
 8004eec:	9018      	str	r0, [sp, #96]	; 0x60
 8004eee:	9410      	str	r4, [sp, #64]	; 0x40
 8004ef0:	f89d a08f 	ldrb.w	sl, [sp, #143]	; 0x8f
 8004ef4:	f7ff b98d 	b.w	8004212 <_svfprintf_r+0x282>
 8004ef8:	9c14      	ldr	r4, [sp, #80]	; 0x50
 8004efa:	1de3      	adds	r3, r4, #7
 8004efc:	f023 0307 	bic.w	r3, r3, #7
 8004f00:	f103 0508 	add.w	r5, r3, #8
 8004f04:	9514      	str	r5, [sp, #80]	; 0x50
 8004f06:	681c      	ldr	r4, [r3, #0]
 8004f08:	941b      	str	r4, [sp, #108]	; 0x6c
 8004f0a:	685b      	ldr	r3, [r3, #4]
 8004f0c:	931c      	str	r3, [sp, #112]	; 0x70
 8004f0e:	f7ff bb53 	b.w	80045b8 <_svfprintf_r+0x628>
 8004f12:	9c0a      	ldr	r4, [sp, #40]	; 0x28
 8004f14:	06e2      	lsls	r2, r4, #27
 8004f16:	d572      	bpl.n	8004ffe <_svfprintf_r+0x106e>
 8004f18:	9d14      	ldr	r5, [sp, #80]	; 0x50
 8004f1a:	9c12      	ldr	r4, [sp, #72]	; 0x48
 8004f1c:	3504      	adds	r5, #4
 8004f1e:	f855 3c04 	ldr.w	r3, [r5, #-4]
 8004f22:	9514      	str	r5, [sp, #80]	; 0x50
 8004f24:	601c      	str	r4, [r3, #0]
 8004f26:	f7ff b869 	b.w	8003ffc <_svfprintf_r+0x6c>
 8004f2a:	980e      	ldr	r0, [sp, #56]	; 0x38
 8004f2c:	aa2b      	add	r2, sp, #172	; 0xac
 8004f2e:	990b      	ldr	r1, [sp, #44]	; 0x2c
 8004f30:	f002 fcd2 	bl	80078d8 <__ssprint_r>
 8004f34:	2800      	cmp	r0, #0
 8004f36:	f47f a910 	bne.w	800415a <_svfprintf_r+0x1ca>
 8004f3a:	9c2d      	ldr	r4, [sp, #180]	; 0xb4
 8004f3c:	af38      	add	r7, sp, #224	; 0xe0
 8004f3e:	e4de      	b.n	80048fe <_svfprintf_r+0x96e>
 8004f40:	9a2c      	ldr	r2, [sp, #176]	; 0xb0
 8004f42:	2101      	movs	r1, #1
 8004f44:	9d17      	ldr	r5, [sp, #92]	; 0x5c
 8004f46:	3401      	adds	r4, #1
 8004f48:	440a      	add	r2, r1
 8004f4a:	942d      	str	r4, [sp, #180]	; 0xb4
 8004f4c:	2a07      	cmp	r2, #7
 8004f4e:	922c      	str	r2, [sp, #176]	; 0xb0
 8004f50:	603d      	str	r5, [r7, #0]
 8004f52:	6079      	str	r1, [r7, #4]
 8004f54:	f300 8112 	bgt.w	800517c <_svfprintf_r+0x11ec>
 8004f58:	3708      	adds	r7, #8
 8004f5a:	4619      	mov	r1, r3
 8004f5c:	b929      	cbnz	r1, 8004f6a <_svfprintf_r+0xfda>
 8004f5e:	9d11      	ldr	r5, [sp, #68]	; 0x44
 8004f60:	b91d      	cbnz	r5, 8004f6a <_svfprintf_r+0xfda>
 8004f62:	9d0a      	ldr	r5, [sp, #40]	; 0x28
 8004f64:	07e8      	lsls	r0, r5, #31
 8004f66:	f57f aa3a 	bpl.w	80043de <_svfprintf_r+0x44e>
 8004f6a:	9b2c      	ldr	r3, [sp, #176]	; 0xb0
 8004f6c:	9a1d      	ldr	r2, [sp, #116]	; 0x74
 8004f6e:	3301      	adds	r3, #1
 8004f70:	9d1d      	ldr	r5, [sp, #116]	; 0x74
 8004f72:	4422      	add	r2, r4
 8004f74:	9c1a      	ldr	r4, [sp, #104]	; 0x68
 8004f76:	2b07      	cmp	r3, #7
 8004f78:	922d      	str	r2, [sp, #180]	; 0xb4
 8004f7a:	607d      	str	r5, [r7, #4]
 8004f7c:	603c      	str	r4, [r7, #0]
 8004f7e:	bfd8      	it	le
 8004f80:	3708      	addle	r7, #8
 8004f82:	932c      	str	r3, [sp, #176]	; 0xb0
 8004f84:	f300 81ba 	bgt.w	80052fc <_svfprintf_r+0x136c>
 8004f88:	f1c1 0a00 	rsb	sl, r1, #0
 8004f8c:	f1ba 0f00 	cmp.w	sl, #0
 8004f90:	f340 8116 	ble.w	80051c0 <_svfprintf_r+0x1230>
 8004f94:	f1ba 0f10 	cmp.w	sl, #16
 8004f98:	bfdc      	itt	le
 8004f9a:	4c9c      	ldrle	r4, [pc, #624]	; (800520c <_svfprintf_r+0x127c>)
 8004f9c:	940f      	strle	r4, [sp, #60]	; 0x3c
 8004f9e:	f340 80f9 	ble.w	8005194 <_svfprintf_r+0x1204>
 8004fa2:	4d9a      	ldr	r5, [pc, #616]	; (800520c <_svfprintf_r+0x127c>)
 8004fa4:	2410      	movs	r4, #16
 8004fa6:	f8dd b02c 	ldr.w	fp, [sp, #44]	; 0x2c
 8004faa:	950f      	str	r5, [sp, #60]	; 0x3c
 8004fac:	9d0e      	ldr	r5, [sp, #56]	; 0x38
 8004fae:	e005      	b.n	8004fbc <_svfprintf_r+0x102c>
 8004fb0:	f1aa 0a10 	sub.w	sl, sl, #16
 8004fb4:	f1ba 0f10 	cmp.w	sl, #16
 8004fb8:	f340 80ec 	ble.w	8005194 <_svfprintf_r+0x1204>
 8004fbc:	3301      	adds	r3, #1
 8004fbe:	3210      	adds	r2, #16
 8004fc0:	2b07      	cmp	r3, #7
 8004fc2:	603e      	str	r6, [r7, #0]
 8004fc4:	607c      	str	r4, [r7, #4]
 8004fc6:	f107 0708 	add.w	r7, r7, #8
 8004fca:	932c      	str	r3, [sp, #176]	; 0xb0
 8004fcc:	922d      	str	r2, [sp, #180]	; 0xb4
 8004fce:	ddef      	ble.n	8004fb0 <_svfprintf_r+0x1020>
 8004fd0:	4628      	mov	r0, r5
 8004fd2:	4659      	mov	r1, fp
 8004fd4:	aa2b      	add	r2, sp, #172	; 0xac
 8004fd6:	af38      	add	r7, sp, #224	; 0xe0
 8004fd8:	f002 fc7e 	bl	80078d8 <__ssprint_r>
 8004fdc:	2800      	cmp	r0, #0
 8004fde:	f47f a8bc 	bne.w	800415a <_svfprintf_r+0x1ca>
 8004fe2:	9a2d      	ldr	r2, [sp, #180]	; 0xb4
 8004fe4:	9b2c      	ldr	r3, [sp, #176]	; 0xb0
 8004fe6:	e7e3      	b.n	8004fb0 <_svfprintf_r+0x1020>
 8004fe8:	980e      	ldr	r0, [sp, #56]	; 0x38
 8004fea:	aa2b      	add	r2, sp, #172	; 0xac
 8004fec:	990b      	ldr	r1, [sp, #44]	; 0x2c
 8004fee:	f002 fc73 	bl	80078d8 <__ssprint_r>
 8004ff2:	2800      	cmp	r0, #0
 8004ff4:	f47f a8b1 	bne.w	800415a <_svfprintf_r+0x1ca>
 8004ff8:	9c2d      	ldr	r4, [sp, #180]	; 0xb4
 8004ffa:	af38      	add	r7, sp, #224	; 0xe0
 8004ffc:	e496      	b.n	800492c <_svfprintf_r+0x99c>
 8004ffe:	9c14      	ldr	r4, [sp, #80]	; 0x50
 8005000:	9d0a      	ldr	r5, [sp, #40]	; 0x28
 8005002:	3404      	adds	r4, #4
 8005004:	f854 3c04 	ldr.w	r3, [r4, #-4]
 8005008:	f015 0f40 	tst.w	r5, #64	; 0x40
 800500c:	9d12      	ldr	r5, [sp, #72]	; 0x48
 800500e:	9414      	str	r4, [sp, #80]	; 0x50
 8005010:	bf14      	ite	ne
 8005012:	801d      	strhne	r5, [r3, #0]
 8005014:	601d      	streq	r5, [r3, #0]
 8005016:	f7fe bff1 	b.w	8003ffc <_svfprintf_r+0x6c>
 800501a:	9d0c      	ldr	r5, [sp, #48]	; 0x30
 800501c:	9c16      	ldr	r4, [sp, #88]	; 0x58
 800501e:	3501      	adds	r5, #1
 8005020:	f024 0520 	bic.w	r5, r4, #32
 8005024:	bf04      	itt	eq
 8005026:	2406      	moveq	r4, #6
 8005028:	940c      	streq	r4, [sp, #48]	; 0x30
 800502a:	d006      	beq.n	800503a <_svfprintf_r+0x10aa>
 800502c:	2d47      	cmp	r5, #71	; 0x47
 800502e:	d104      	bne.n	800503a <_svfprintf_r+0x10aa>
 8005030:	9c0c      	ldr	r4, [sp, #48]	; 0x30
 8005032:	2c00      	cmp	r4, #0
 8005034:	bf08      	it	eq
 8005036:	2401      	moveq	r4, #1
 8005038:	940c      	str	r4, [sp, #48]	; 0x30
 800503a:	9b1c      	ldr	r3, [sp, #112]	; 0x70
 800503c:	9c0a      	ldr	r4, [sp, #40]	; 0x28
 800503e:	2b00      	cmp	r3, #0
 8005040:	f444 7480 	orr.w	r4, r4, #256	; 0x100
 8005044:	940f      	str	r4, [sp, #60]	; 0x3c
 8005046:	bfbd      	ittte	lt
 8005048:	461c      	movlt	r4, r3
 800504a:	f04f 0b2d 	movlt.w	fp, #45	; 0x2d
 800504e:	f104 4a00 	addlt.w	sl, r4, #2147483648	; 0x80000000
 8005052:	f8dd a070 	ldrge.w	sl, [sp, #112]	; 0x70
 8005056:	bfa8      	it	ge
 8005058:	f04f 0b00 	movge.w	fp, #0
 800505c:	f1b5 0446 	subs.w	r4, r5, #70	; 0x46
 8005060:	4261      	negs	r1, r4
 8005062:	4161      	adcs	r1, r4
 8005064:	2900      	cmp	r1, #0
 8005066:	d030      	beq.n	80050ca <_svfprintf_r+0x113a>
 8005068:	2003      	movs	r0, #3
 800506a:	9c0c      	ldr	r4, [sp, #48]	; 0x30
 800506c:	4653      	mov	r3, sl
 800506e:	9000      	str	r0, [sp, #0]
 8005070:	a825      	add	r0, sp, #148	; 0x94
 8005072:	9a1b      	ldr	r2, [sp, #108]	; 0x6c
 8005074:	9002      	str	r0, [sp, #8]
 8005076:	a826      	add	r0, sp, #152	; 0x98
 8005078:	9401      	str	r4, [sp, #4]
 800507a:	9003      	str	r0, [sp, #12]
 800507c:	a829      	add	r0, sp, #164	; 0xa4
 800507e:	9004      	str	r0, [sp, #16]
 8005080:	980e      	ldr	r0, [sp, #56]	; 0x38
 8005082:	9107      	str	r1, [sp, #28]
 8005084:	f000 fa86 	bl	8005594 <_dtoa_r>
 8005088:	2d47      	cmp	r5, #71	; 0x47
 800508a:	9907      	ldr	r1, [sp, #28]
 800508c:	4680      	mov	r8, r0
 800508e:	d103      	bne.n	8005098 <_svfprintf_r+0x1108>
 8005090:	9c0a      	ldr	r4, [sp, #40]	; 0x28
 8005092:	07e0      	lsls	r0, r4, #31
 8005094:	f140 80f0 	bpl.w	8005278 <_svfprintf_r+0x12e8>
 8005098:	9c0c      	ldr	r4, [sp, #48]	; 0x30
 800509a:	4444      	add	r4, r8
 800509c:	b351      	cbz	r1, 80050f4 <_svfprintf_r+0x1164>
 800509e:	f898 3000 	ldrb.w	r3, [r8]
 80050a2:	2b30      	cmp	r3, #48	; 0x30
 80050a4:	f000 8184 	beq.w	80053b0 <_svfprintf_r+0x1420>
 80050a8:	9b25      	ldr	r3, [sp, #148]	; 0x94
 80050aa:	441c      	add	r4, r3
 80050ac:	e022      	b.n	80050f4 <_svfprintf_r+0x1164>
 80050ae:	980e      	ldr	r0, [sp, #56]	; 0x38
 80050b0:	2140      	movs	r1, #64	; 0x40
 80050b2:	f001 fa93 	bl	80065dc <_malloc_r>
 80050b6:	6020      	str	r0, [r4, #0]
 80050b8:	6120      	str	r0, [r4, #16]
 80050ba:	2800      	cmp	r0, #0
 80050bc:	f000 81b6 	beq.w	800542c <_svfprintf_r+0x149c>
 80050c0:	9c0b      	ldr	r4, [sp, #44]	; 0x2c
 80050c2:	2340      	movs	r3, #64	; 0x40
 80050c4:	6163      	str	r3, [r4, #20]
 80050c6:	f7fe bf79 	b.w	8003fbc <_svfprintf_r+0x2c>
 80050ca:	2d45      	cmp	r5, #69	; 0x45
 80050cc:	f040 8131 	bne.w	8005332 <_svfprintf_r+0x13a2>
 80050d0:	980c      	ldr	r0, [sp, #48]	; 0x30
 80050d2:	2102      	movs	r1, #2
 80050d4:	9a1b      	ldr	r2, [sp, #108]	; 0x6c
 80050d6:	4653      	mov	r3, sl
 80050d8:	1c44      	adds	r4, r0, #1
 80050da:	9100      	str	r1, [sp, #0]
 80050dc:	9401      	str	r4, [sp, #4]
 80050de:	a925      	add	r1, sp, #148	; 0x94
 80050e0:	980e      	ldr	r0, [sp, #56]	; 0x38
 80050e2:	9102      	str	r1, [sp, #8]
 80050e4:	a926      	add	r1, sp, #152	; 0x98
 80050e6:	9103      	str	r1, [sp, #12]
 80050e8:	a929      	add	r1, sp, #164	; 0xa4
 80050ea:	9104      	str	r1, [sp, #16]
 80050ec:	f000 fa52 	bl	8005594 <_dtoa_r>
 80050f0:	4680      	mov	r8, r0
 80050f2:	4404      	add	r4, r0
 80050f4:	2300      	movs	r3, #0
 80050f6:	981b      	ldr	r0, [sp, #108]	; 0x6c
 80050f8:	2200      	movs	r2, #0
 80050fa:	4651      	mov	r1, sl
 80050fc:	f004 fbb2 	bl	8009864 <__aeabi_dcmpeq>
 8005100:	4623      	mov	r3, r4
 8005102:	b948      	cbnz	r0, 8005118 <_svfprintf_r+0x1188>
 8005104:	9b29      	ldr	r3, [sp, #164]	; 0xa4
 8005106:	429c      	cmp	r4, r3
 8005108:	d906      	bls.n	8005118 <_svfprintf_r+0x1188>
 800510a:	2130      	movs	r1, #48	; 0x30
 800510c:	1c5a      	adds	r2, r3, #1
 800510e:	9229      	str	r2, [sp, #164]	; 0xa4
 8005110:	7019      	strb	r1, [r3, #0]
 8005112:	9b29      	ldr	r3, [sp, #164]	; 0xa4
 8005114:	429c      	cmp	r4, r3
 8005116:	d8f9      	bhi.n	800510c <_svfprintf_r+0x117c>
 8005118:	2d47      	cmp	r5, #71	; 0x47
 800511a:	ebc8 0303 	rsb	r3, r8, r3
 800511e:	9311      	str	r3, [sp, #68]	; 0x44
 8005120:	f000 80ae 	beq.w	8005280 <_svfprintf_r+0x12f0>
 8005124:	9c16      	ldr	r4, [sp, #88]	; 0x58
 8005126:	2c65      	cmp	r4, #101	; 0x65
 8005128:	f340 818a 	ble.w	8005440 <_svfprintf_r+0x14b0>
 800512c:	9d16      	ldr	r5, [sp, #88]	; 0x58
 800512e:	2d66      	cmp	r5, #102	; 0x66
 8005130:	f000 8101 	beq.w	8005336 <_svfprintf_r+0x13a6>
 8005134:	9c25      	ldr	r4, [sp, #148]	; 0x94
 8005136:	9418      	str	r4, [sp, #96]	; 0x60
 8005138:	9c18      	ldr	r4, [sp, #96]	; 0x60
 800513a:	9d11      	ldr	r5, [sp, #68]	; 0x44
 800513c:	42ac      	cmp	r4, r5
 800513e:	f2c0 80ea 	blt.w	8005316 <_svfprintf_r+0x1386>
 8005142:	9c0a      	ldr	r4, [sp, #40]	; 0x28
 8005144:	9d18      	ldr	r5, [sp, #96]	; 0x60
 8005146:	07e0      	lsls	r0, r4, #31
 8005148:	bf4b      	itete	mi
 800514a:	3501      	addmi	r5, #1
 800514c:	ea25 73e5 	bicpl.w	r3, r5, r5, asr #31
 8005150:	ea25 73e5 	bicmi.w	r3, r5, r5, asr #31
 8005154:	2467      	movpl	r4, #103	; 0x67
 8005156:	bf4d      	iteet	mi
 8005158:	2467      	movmi	r4, #103	; 0x67
 800515a:	9510      	strpl	r5, [sp, #64]	; 0x40
 800515c:	9416      	strpl	r4, [sp, #88]	; 0x58
 800515e:	9510      	strmi	r5, [sp, #64]	; 0x40
 8005160:	bf48      	it	mi
 8005162:	9416      	strmi	r4, [sp, #88]	; 0x58
 8005164:	f1bb 0f00 	cmp.w	fp, #0
 8005168:	d175      	bne.n	8005256 <_svfprintf_r+0x12c6>
 800516a:	9c0f      	ldr	r4, [sp, #60]	; 0x3c
 800516c:	930d      	str	r3, [sp, #52]	; 0x34
 800516e:	f8cd b030 	str.w	fp, [sp, #48]	; 0x30
 8005172:	940a      	str	r4, [sp, #40]	; 0x28
 8005174:	f89d a08f 	ldrb.w	sl, [sp, #143]	; 0x8f
 8005178:	f7ff b84b 	b.w	8004212 <_svfprintf_r+0x282>
 800517c:	980e      	ldr	r0, [sp, #56]	; 0x38
 800517e:	aa2b      	add	r2, sp, #172	; 0xac
 8005180:	990b      	ldr	r1, [sp, #44]	; 0x2c
 8005182:	f002 fba9 	bl	80078d8 <__ssprint_r>
 8005186:	2800      	cmp	r0, #0
 8005188:	f47e afe7 	bne.w	800415a <_svfprintf_r+0x1ca>
 800518c:	9925      	ldr	r1, [sp, #148]	; 0x94
 800518e:	af38      	add	r7, sp, #224	; 0xe0
 8005190:	9c2d      	ldr	r4, [sp, #180]	; 0xb4
 8005192:	e6e3      	b.n	8004f5c <_svfprintf_r+0xfcc>
 8005194:	3301      	adds	r3, #1
 8005196:	9c0f      	ldr	r4, [sp, #60]	; 0x3c
 8005198:	2b07      	cmp	r3, #7
 800519a:	4452      	add	r2, sl
 800519c:	932c      	str	r3, [sp, #176]	; 0xb0
 800519e:	e887 0410 	stmia.w	r7, {r4, sl}
 80051a2:	bfd8      	it	le
 80051a4:	3708      	addle	r7, #8
 80051a6:	922d      	str	r2, [sp, #180]	; 0xb4
 80051a8:	dd0a      	ble.n	80051c0 <_svfprintf_r+0x1230>
 80051aa:	980e      	ldr	r0, [sp, #56]	; 0x38
 80051ac:	aa2b      	add	r2, sp, #172	; 0xac
 80051ae:	990b      	ldr	r1, [sp, #44]	; 0x2c
 80051b0:	f002 fb92 	bl	80078d8 <__ssprint_r>
 80051b4:	2800      	cmp	r0, #0
 80051b6:	f47e afd0 	bne.w	800415a <_svfprintf_r+0x1ca>
 80051ba:	9a2d      	ldr	r2, [sp, #180]	; 0xb4
 80051bc:	af38      	add	r7, sp, #224	; 0xe0
 80051be:	9b2c      	ldr	r3, [sp, #176]	; 0xb0
 80051c0:	3301      	adds	r3, #1
 80051c2:	9d11      	ldr	r5, [sp, #68]	; 0x44
 80051c4:	9c11      	ldr	r4, [sp, #68]	; 0x44
 80051c6:	2b07      	cmp	r3, #7
 80051c8:	932c      	str	r3, [sp, #176]	; 0xb0
 80051ca:	4414      	add	r4, r2
 80051cc:	f8c7 8000 	str.w	r8, [r7]
 80051d0:	942d      	str	r4, [sp, #180]	; 0xb4
 80051d2:	607d      	str	r5, [r7, #4]
 80051d4:	f77f a902 	ble.w	80043dc <_svfprintf_r+0x44c>
 80051d8:	e47a      	b.n	8004ad0 <_svfprintf_r+0xb40>
 80051da:	950c      	str	r5, [sp, #48]	; 0x30
 80051dc:	f002 fb4c 	bl	8007878 <strlen>
 80051e0:	9414      	str	r4, [sp, #80]	; 0x50
 80051e2:	9c0c      	ldr	r4, [sp, #48]	; 0x30
 80051e4:	f89d a08f 	ldrb.w	sl, [sp, #143]	; 0x8f
 80051e8:	9418      	str	r4, [sp, #96]	; 0x60
 80051ea:	ea20 75e0 	bic.w	r5, r0, r0, asr #31
 80051ee:	9010      	str	r0, [sp, #64]	; 0x40
 80051f0:	950d      	str	r5, [sp, #52]	; 0x34
 80051f2:	f7ff b80e 	b.w	8004212 <_svfprintf_r+0x282>
 80051f6:	980e      	ldr	r0, [sp, #56]	; 0x38
 80051f8:	aa2b      	add	r2, sp, #172	; 0xac
 80051fa:	990b      	ldr	r1, [sp, #44]	; 0x2c
 80051fc:	f002 fb6c 	bl	80078d8 <__ssprint_r>
 8005200:	2800      	cmp	r0, #0
 8005202:	f47e afaa 	bne.w	800415a <_svfprintf_r+0x1ca>
 8005206:	9c2d      	ldr	r4, [sp, #180]	; 0xb4
 8005208:	af38      	add	r7, sp, #224	; 0xe0
 800520a:	e4b1      	b.n	8004b70 <_svfprintf_r+0xbe0>
 800520c:	0800a054 	stmdaeq	r0, {r2, r4, r6, sp, pc}
 8005210:	980e      	ldr	r0, [sp, #56]	; 0x38
 8005212:	aa2b      	add	r2, sp, #172	; 0xac
 8005214:	990b      	ldr	r1, [sp, #44]	; 0x2c
 8005216:	f002 fb5f 	bl	80078d8 <__ssprint_r>
 800521a:	2800      	cmp	r0, #0
 800521c:	f47e af9d 	bne.w	800415a <_svfprintf_r+0x1ca>
 8005220:	9b25      	ldr	r3, [sp, #148]	; 0x94
 8005222:	af38      	add	r7, sp, #224	; 0xe0
 8005224:	9a11      	ldr	r2, [sp, #68]	; 0x44
 8005226:	9c2d      	ldr	r4, [sp, #180]	; 0xb4
 8005228:	1ad3      	subs	r3, r2, r3
 800522a:	e5a7      	b.n	8004d7c <_svfprintf_r+0xdec>
 800522c:	9d0c      	ldr	r5, [sp, #48]	; 0x30
 800522e:	46c2      	mov	sl, r8
 8005230:	f24a 28d4 	movw	r8, #41684	; 0xa2d4
 8005234:	9414      	str	r4, [sp, #80]	; 0x50
 8005236:	2d06      	cmp	r5, #6
 8005238:	bf28      	it	cs
 800523a:	2506      	movcs	r5, #6
 800523c:	f8cd a030 	str.w	sl, [sp, #48]	; 0x30
 8005240:	9510      	str	r5, [sp, #64]	; 0x40
 8005242:	4654      	mov	r4, sl
 8005244:	ea25 75e5 	bic.w	r5, r5, r5, asr #31
 8005248:	f8cd a060 	str.w	sl, [sp, #96]	; 0x60
 800524c:	950d      	str	r5, [sp, #52]	; 0x34
 800524e:	f6c0 0800 	movt	r8, #2048	; 0x800
 8005252:	f7fe bfde 	b.w	8004212 <_svfprintf_r+0x282>
 8005256:	9d0f      	ldr	r5, [sp, #60]	; 0x3c
 8005258:	f04f 0a2d 	mov.w	sl, #45	; 0x2d
 800525c:	2400      	movs	r4, #0
 800525e:	930d      	str	r3, [sp, #52]	; 0x34
 8005260:	f88d a08f 	strb.w	sl, [sp, #143]	; 0x8f
 8005264:	950a      	str	r5, [sp, #40]	; 0x28
 8005266:	940c      	str	r4, [sp, #48]	; 0x30
 8005268:	f7fe bfd6 	b.w	8004218 <_svfprintf_r+0x288>
 800526c:	f04f 0a2d 	mov.w	sl, #45	; 0x2d
 8005270:	f88d a08f 	strb.w	sl, [sp, #143]	; 0x8f
 8005274:	f7ff b9b2 	b.w	80045dc <_svfprintf_r+0x64c>
 8005278:	9b29      	ldr	r3, [sp, #164]	; 0xa4
 800527a:	ebc8 0303 	rsb	r3, r8, r3
 800527e:	9311      	str	r3, [sp, #68]	; 0x44
 8005280:	9b25      	ldr	r3, [sp, #148]	; 0x94
 8005282:	1cda      	adds	r2, r3, #3
 8005284:	db11      	blt.n	80052aa <_svfprintf_r+0x131a>
 8005286:	9c0c      	ldr	r4, [sp, #48]	; 0x30
 8005288:	429c      	cmp	r4, r3
 800528a:	db0e      	blt.n	80052aa <_svfprintf_r+0x131a>
 800528c:	9318      	str	r3, [sp, #96]	; 0x60
 800528e:	e753      	b.n	8005138 <_svfprintf_r+0x11a8>
 8005290:	9d0c      	ldr	r5, [sp, #48]	; 0x30
 8005292:	9414      	str	r4, [sp, #80]	; 0x50
 8005294:	ea25 75e5 	bic.w	r5, r5, r5, asr #31
 8005298:	950d      	str	r5, [sp, #52]	; 0x34
 800529a:	9d0c      	ldr	r5, [sp, #48]	; 0x30
 800529c:	9018      	str	r0, [sp, #96]	; 0x60
 800529e:	900c      	str	r0, [sp, #48]	; 0x30
 80052a0:	9510      	str	r5, [sp, #64]	; 0x40
 80052a2:	f89d a08f 	ldrb.w	sl, [sp, #143]	; 0x8f
 80052a6:	f7fe bfb4 	b.w	8004212 <_svfprintf_r+0x282>
 80052aa:	9d16      	ldr	r5, [sp, #88]	; 0x58
 80052ac:	3d02      	subs	r5, #2
 80052ae:	9516      	str	r5, [sp, #88]	; 0x58
 80052b0:	3b01      	subs	r3, #1
 80052b2:	9d16      	ldr	r5, [sp, #88]	; 0x58
 80052b4:	2b00      	cmp	r3, #0
 80052b6:	9325      	str	r3, [sp, #148]	; 0x94
 80052b8:	bfba      	itte	lt
 80052ba:	425b      	neglt	r3, r3
 80052bc:	222d      	movlt	r2, #45	; 0x2d
 80052be:	222b      	movge	r2, #43	; 0x2b
 80052c0:	2b09      	cmp	r3, #9
 80052c2:	f88d 509c 	strb.w	r5, [sp, #156]	; 0x9c
 80052c6:	f88d 209d 	strb.w	r2, [sp, #157]	; 0x9d
 80052ca:	dc43      	bgt.n	8005354 <_svfprintf_r+0x13c4>
 80052cc:	3330      	adds	r3, #48	; 0x30
 80052ce:	f88d 309f 	strb.w	r3, [sp, #159]	; 0x9f
 80052d2:	2330      	movs	r3, #48	; 0x30
 80052d4:	f88d 309e 	strb.w	r3, [sp, #158]	; 0x9e
 80052d8:	ab28      	add	r3, sp, #160	; 0xa0
 80052da:	9d11      	ldr	r5, [sp, #68]	; 0x44
 80052dc:	aa27      	add	r2, sp, #156	; 0x9c
 80052de:	9c11      	ldr	r4, [sp, #68]	; 0x44
 80052e0:	1a9a      	subs	r2, r3, r2
 80052e2:	2d01      	cmp	r5, #1
 80052e4:	921e      	str	r2, [sp, #120]	; 0x78
 80052e6:	4414      	add	r4, r2
 80052e8:	9410      	str	r4, [sp, #64]	; 0x40
 80052ea:	dd78      	ble.n	80053de <_svfprintf_r+0x144e>
 80052ec:	9b10      	ldr	r3, [sp, #64]	; 0x40
 80052ee:	2400      	movs	r4, #0
 80052f0:	9418      	str	r4, [sp, #96]	; 0x60
 80052f2:	3301      	adds	r3, #1
 80052f4:	9310      	str	r3, [sp, #64]	; 0x40
 80052f6:	ea23 73e3 	bic.w	r3, r3, r3, asr #31
 80052fa:	e733      	b.n	8005164 <_svfprintf_r+0x11d4>
 80052fc:	980e      	ldr	r0, [sp, #56]	; 0x38
 80052fe:	aa2b      	add	r2, sp, #172	; 0xac
 8005300:	990b      	ldr	r1, [sp, #44]	; 0x2c
 8005302:	f002 fae9 	bl	80078d8 <__ssprint_r>
 8005306:	2800      	cmp	r0, #0
 8005308:	f47e af27 	bne.w	800415a <_svfprintf_r+0x1ca>
 800530c:	9925      	ldr	r1, [sp, #148]	; 0x94
 800530e:	af38      	add	r7, sp, #224	; 0xe0
 8005310:	9a2d      	ldr	r2, [sp, #180]	; 0xb4
 8005312:	9b2c      	ldr	r3, [sp, #176]	; 0xb0
 8005314:	e638      	b.n	8004f88 <_svfprintf_r+0xff8>
 8005316:	9d18      	ldr	r5, [sp, #96]	; 0x60
 8005318:	9c11      	ldr	r4, [sp, #68]	; 0x44
 800531a:	2d00      	cmp	r5, #0
 800531c:	bfd4      	ite	le
 800531e:	f1c5 0302 	rsble	r3, r5, #2
 8005322:	2301      	movgt	r3, #1
 8005324:	441c      	add	r4, r3
 8005326:	2567      	movs	r5, #103	; 0x67
 8005328:	9410      	str	r4, [sp, #64]	; 0x40
 800532a:	ea24 73e4 	bic.w	r3, r4, r4, asr #31
 800532e:	9516      	str	r5, [sp, #88]	; 0x58
 8005330:	e718      	b.n	8005164 <_svfprintf_r+0x11d4>
 8005332:	2002      	movs	r0, #2
 8005334:	e699      	b.n	800506a <_svfprintf_r+0x10da>
 8005336:	9d25      	ldr	r5, [sp, #148]	; 0x94
 8005338:	2d00      	cmp	r5, #0
 800533a:	9518      	str	r5, [sp, #96]	; 0x60
 800533c:	dd58      	ble.n	80053f0 <_svfprintf_r+0x1460>
 800533e:	9c0c      	ldr	r4, [sp, #48]	; 0x30
 8005340:	2c00      	cmp	r4, #0
 8005342:	d144      	bne.n	80053ce <_svfprintf_r+0x143e>
 8005344:	9d0a      	ldr	r5, [sp, #40]	; 0x28
 8005346:	07ed      	lsls	r5, r5, #31
 8005348:	d441      	bmi.n	80053ce <_svfprintf_r+0x143e>
 800534a:	9c18      	ldr	r4, [sp, #96]	; 0x60
 800534c:	ea24 73e4 	bic.w	r3, r4, r4, asr #31
 8005350:	9410      	str	r4, [sp, #64]	; 0x40
 8005352:	e707      	b.n	8005164 <_svfprintf_r+0x11d4>
 8005354:	f246 6167 	movw	r1, #26215	; 0x6667
 8005358:	f10d 05aa 	add.w	r5, sp, #170	; 0xaa
 800535c:	f2c6 6166 	movt	r1, #26214	; 0x6666
 8005360:	fb81 2003 	smull	r2, r0, r1, r3
 8005364:	17da      	asrs	r2, r3, #31
 8005366:	462c      	mov	r4, r5
 8005368:	3d01      	subs	r5, #1
 800536a:	ebc2 02a0 	rsb	r2, r2, r0, asr #2
 800536e:	eb02 0082 	add.w	r0, r2, r2, lsl #2
 8005372:	eba3 0040 	sub.w	r0, r3, r0, lsl #1
 8005376:	4613      	mov	r3, r2
 8005378:	2b09      	cmp	r3, #9
 800537a:	f100 0230 	add.w	r2, r0, #48	; 0x30
 800537e:	7022      	strb	r2, [r4, #0]
 8005380:	dcee      	bgt.n	8005360 <_svfprintf_r+0x13d0>
 8005382:	f10d 00ab 	add.w	r0, sp, #171	; 0xab
 8005386:	3330      	adds	r3, #48	; 0x30
 8005388:	42a8      	cmp	r0, r5
 800538a:	b2da      	uxtb	r2, r3
 800538c:	f804 2c01 	strb.w	r2, [r4, #-1]
 8005390:	d953      	bls.n	800543a <_svfprintf_r+0x14aa>
 8005392:	f10d 019d 	add.w	r1, sp, #157	; 0x9d
 8005396:	4623      	mov	r3, r4
 8005398:	e001      	b.n	800539e <_svfprintf_r+0x140e>
 800539a:	f813 2b01 	ldrb.w	r2, [r3], #1
 800539e:	4283      	cmp	r3, r0
 80053a0:	f801 2f01 	strb.w	r2, [r1, #1]!
 80053a4:	d1f9      	bne.n	800539a <_svfprintf_r+0x140a>
 80053a6:	ad48      	add	r5, sp, #288	; 0x120
 80053a8:	ebc4 0345 	rsb	r3, r4, r5, lsl #1
 80053ac:	3bf6      	subs	r3, #246	; 0xf6
 80053ae:	e794      	b.n	80052da <_svfprintf_r+0x134a>
 80053b0:	981b      	ldr	r0, [sp, #108]	; 0x6c
 80053b2:	2200      	movs	r2, #0
 80053b4:	2300      	movs	r3, #0
 80053b6:	4651      	mov	r1, sl
 80053b8:	f004 fa54 	bl	8009864 <__aeabi_dcmpeq>
 80053bc:	2800      	cmp	r0, #0
 80053be:	f47f ae73 	bne.w	80050a8 <_svfprintf_r+0x1118>
 80053c2:	980c      	ldr	r0, [sp, #48]	; 0x30
 80053c4:	f1c0 0301 	rsb	r3, r0, #1
 80053c8:	9325      	str	r3, [sp, #148]	; 0x94
 80053ca:	441c      	add	r4, r3
 80053cc:	e692      	b.n	80050f4 <_svfprintf_r+0x1164>
 80053ce:	9d0c      	ldr	r5, [sp, #48]	; 0x30
 80053d0:	9c18      	ldr	r4, [sp, #96]	; 0x60
 80053d2:	1c6b      	adds	r3, r5, #1
 80053d4:	441c      	add	r4, r3
 80053d6:	9410      	str	r4, [sp, #64]	; 0x40
 80053d8:	ea24 73e4 	bic.w	r3, r4, r4, asr #31
 80053dc:	e6c2      	b.n	8005164 <_svfprintf_r+0x11d4>
 80053de:	9c0a      	ldr	r4, [sp, #40]	; 0x28
 80053e0:	f014 0301 	ands.w	r3, r4, #1
 80053e4:	d182      	bne.n	80052ec <_svfprintf_r+0x135c>
 80053e6:	9d10      	ldr	r5, [sp, #64]	; 0x40
 80053e8:	9318      	str	r3, [sp, #96]	; 0x60
 80053ea:	ea25 73e5 	bic.w	r3, r5, r5, asr #31
 80053ee:	e6b9      	b.n	8005164 <_svfprintf_r+0x11d4>
 80053f0:	9d0c      	ldr	r5, [sp, #48]	; 0x30
 80053f2:	b935      	cbnz	r5, 8005402 <_svfprintf_r+0x1472>
 80053f4:	9c0a      	ldr	r4, [sp, #40]	; 0x28
 80053f6:	07e4      	lsls	r4, r4, #31
 80053f8:	bf5c      	itt	pl
 80053fa:	2301      	movpl	r3, #1
 80053fc:	9310      	strpl	r3, [sp, #64]	; 0x40
 80053fe:	f57f aeb1 	bpl.w	8005164 <_svfprintf_r+0x11d4>
 8005402:	9d0c      	ldr	r5, [sp, #48]	; 0x30
 8005404:	3502      	adds	r5, #2
 8005406:	9510      	str	r5, [sp, #64]	; 0x40
 8005408:	ea25 73e5 	bic.w	r3, r5, r5, asr #31
 800540c:	e6aa      	b.n	8005164 <_svfprintf_r+0x11d4>
 800540e:	9d14      	ldr	r5, [sp, #80]	; 0x50
 8005410:	f899 3001 	ldrb.w	r3, [r9, #1]
 8005414:	46a1      	mov	r9, r4
 8005416:	682d      	ldr	r5, [r5, #0]
 8005418:	950c      	str	r5, [sp, #48]	; 0x30
 800541a:	9d14      	ldr	r5, [sp, #80]	; 0x50
 800541c:	1d29      	adds	r1, r5, #4
 800541e:	9d0c      	ldr	r5, [sp, #48]	; 0x30
 8005420:	9114      	str	r1, [sp, #80]	; 0x50
 8005422:	2d00      	cmp	r5, #0
 8005424:	f6be ae1d 	bge.w	8004062 <_svfprintf_r+0xd2>
 8005428:	f7fe be18 	b.w	800405c <_svfprintf_r+0xcc>
 800542c:	9d0e      	ldr	r5, [sp, #56]	; 0x38
 800542e:	230c      	movs	r3, #12
 8005430:	f04f 30ff 	mov.w	r0, #4294967295
 8005434:	602b      	str	r3, [r5, #0]
 8005436:	f7fe be98 	b.w	800416a <_svfprintf_r+0x1da>
 800543a:	f10d 039e 	add.w	r3, sp, #158	; 0x9e
 800543e:	e74c      	b.n	80052da <_svfprintf_r+0x134a>
 8005440:	9b25      	ldr	r3, [sp, #148]	; 0x94
 8005442:	e735      	b.n	80052b0 <_svfprintf_r+0x1320>
 8005444:	0000      	movs	r0, r0
	...

08005448 <quorem>:
 8005448:	e92d 4ff0 	stmdb	sp!, {r4, r5, r6, r7, r8, r9, sl, fp, lr}
 800544c:	468c      	mov	ip, r1
 800544e:	6903      	ldr	r3, [r0, #16]
 8005450:	4683      	mov	fp, r0
 8005452:	690d      	ldr	r5, [r1, #16]
 8005454:	b085      	sub	sp, #20
 8005456:	429d      	cmp	r5, r3
 8005458:	bfc8      	it	gt
 800545a:	2000      	movgt	r0, #0
 800545c:	f300 8096 	bgt.w	800558c <quorem+0x144>
 8005460:	3d01      	subs	r5, #1
 8005462:	f101 0414 	add.w	r4, r1, #20
 8005466:	f10b 0a14 	add.w	sl, fp, #20
 800546a:	f854 1025 	ldr.w	r1, [r4, r5, lsl #2]
 800546e:	00aa      	lsls	r2, r5, #2
 8005470:	f85a 0025 	ldr.w	r0, [sl, r5, lsl #2]
 8005474:	4691      	mov	r9, r2
 8005476:	3101      	adds	r1, #1
 8005478:	9202      	str	r2, [sp, #8]
 800547a:	f8cd c004 	str.w	ip, [sp, #4]
 800547e:	4452      	add	r2, sl
 8005480:	9203      	str	r2, [sp, #12]
 8005482:	f003 fc91 	bl	8008da8 <__aeabi_uidiv>
 8005486:	44a1      	add	r9, r4
 8005488:	f8dd c004 	ldr.w	ip, [sp, #4]
 800548c:	4680      	mov	r8, r0
 800548e:	2800      	cmp	r0, #0
 8005490:	d041      	beq.n	8005516 <quorem+0xce>
 8005492:	2100      	movs	r1, #0
 8005494:	4622      	mov	r2, r4
 8005496:	4608      	mov	r0, r1
 8005498:	4653      	mov	r3, sl
 800549a:	460f      	mov	r7, r1
 800549c:	f852 1b04 	ldr.w	r1, [r2], #4
 80054a0:	681e      	ldr	r6, [r3, #0]
 80054a2:	4591      	cmp	r9, r2
 80054a4:	fa1f fe81 	uxth.w	lr, r1
 80054a8:	ea4f 4111 	mov.w	r1, r1, lsr #16
 80054ac:	fb0e 7708 	mla	r7, lr, r8, r7
 80054b0:	fa1f fe86 	uxth.w	lr, r6
 80054b4:	fb01 f108 	mul.w	r1, r1, r8
 80054b8:	eb01 4117 	add.w	r1, r1, r7, lsr #16
 80054bc:	b2bf      	uxth	r7, r7
 80054be:	ebc7 0000 	rsb	r0, r7, r0
 80054c2:	4486      	add	lr, r0
 80054c4:	b288      	uxth	r0, r1
 80054c6:	ebc0 4016 	rsb	r0, r0, r6, lsr #16
 80054ca:	ea4f 4711 	mov.w	r7, r1, lsr #16
 80054ce:	eb00 402e 	add.w	r0, r0, lr, asr #16
 80054d2:	fa1f fe8e 	uxth.w	lr, lr
 80054d6:	ea4e 4100 	orr.w	r1, lr, r0, lsl #16
 80054da:	ea4f 4020 	mov.w	r0, r0, asr #16
 80054de:	f843 1b04 	str.w	r1, [r3], #4
 80054e2:	d2db      	bcs.n	800549c <quorem+0x54>
 80054e4:	9a02      	ldr	r2, [sp, #8]
 80054e6:	f85a 3002 	ldr.w	r3, [sl, r2]
 80054ea:	b9a3      	cbnz	r3, 8005516 <quorem+0xce>
 80054ec:	9a03      	ldr	r2, [sp, #12]
 80054ee:	1f13      	subs	r3, r2, #4
 80054f0:	459a      	cmp	sl, r3
 80054f2:	d20e      	bcs.n	8005512 <quorem+0xca>
 80054f4:	f852 3c04 	ldr.w	r3, [r2, #-4]
 80054f8:	b95b      	cbnz	r3, 8005512 <quorem+0xca>
 80054fa:	f1a2 0308 	sub.w	r3, r2, #8
 80054fe:	e001      	b.n	8005504 <quorem+0xbc>
 8005500:	6812      	ldr	r2, [r2, #0]
 8005502:	b932      	cbnz	r2, 8005512 <quorem+0xca>
 8005504:	459a      	cmp	sl, r3
 8005506:	461a      	mov	r2, r3
 8005508:	f105 35ff 	add.w	r5, r5, #4294967295
 800550c:	f1a3 0304 	sub.w	r3, r3, #4
 8005510:	d3f6      	bcc.n	8005500 <quorem+0xb8>
 8005512:	f8cb 5010 	str.w	r5, [fp, #16]
 8005516:	4661      	mov	r1, ip
 8005518:	4658      	mov	r0, fp
 800551a:	f001 fe47 	bl	80071ac <__mcmp>
 800551e:	2800      	cmp	r0, #0
 8005520:	db33      	blt.n	800558a <quorem+0x142>
 8005522:	f108 0801 	add.w	r8, r8, #1
 8005526:	4653      	mov	r3, sl
 8005528:	2200      	movs	r2, #0
 800552a:	f854 6b04 	ldr.w	r6, [r4], #4
 800552e:	6818      	ldr	r0, [r3, #0]
 8005530:	45a1      	cmp	r9, r4
 8005532:	b2b1      	uxth	r1, r6
 8005534:	ea4f 4616 	mov.w	r6, r6, lsr #16
 8005538:	ebc1 0202 	rsb	r2, r1, r2
 800553c:	b287      	uxth	r7, r0
 800553e:	eb02 0107 	add.w	r1, r2, r7
 8005542:	ebc6 4210 	rsb	r2, r6, r0, lsr #16
 8005546:	eb02 4221 	add.w	r2, r2, r1, asr #16
 800554a:	b289      	uxth	r1, r1
 800554c:	ea41 4102 	orr.w	r1, r1, r2, lsl #16
 8005550:	ea4f 4222 	mov.w	r2, r2, asr #16
 8005554:	f843 1b04 	str.w	r1, [r3], #4
 8005558:	d2e7      	bcs.n	800552a <quorem+0xe2>
 800555a:	f85a 2025 	ldr.w	r2, [sl, r5, lsl #2]
 800555e:	eb0a 0385 	add.w	r3, sl, r5, lsl #2
 8005562:	b992      	cbnz	r2, 800558a <quorem+0x142>
 8005564:	1f1a      	subs	r2, r3, #4
 8005566:	4592      	cmp	sl, r2
 8005568:	d20d      	bcs.n	8005586 <quorem+0x13e>
 800556a:	f853 2c04 	ldr.w	r2, [r3, #-4]
 800556e:	b952      	cbnz	r2, 8005586 <quorem+0x13e>
 8005570:	3b08      	subs	r3, #8
 8005572:	e001      	b.n	8005578 <quorem+0x130>
 8005574:	6812      	ldr	r2, [r2, #0]
 8005576:	b932      	cbnz	r2, 8005586 <quorem+0x13e>
 8005578:	459a      	cmp	sl, r3
 800557a:	461a      	mov	r2, r3
 800557c:	f105 35ff 	add.w	r5, r5, #4294967295
 8005580:	f1a3 0304 	sub.w	r3, r3, #4
 8005584:	d3f6      	bcc.n	8005574 <quorem+0x12c>
 8005586:	f8cb 5010 	str.w	r5, [fp, #16]
 800558a:	4640      	mov	r0, r8
 800558c:	b005      	add	sp, #20
 800558e:	e8bd 8ff0 	ldmia.w	sp!, {r4, r5, r6, r7, r8, r9, sl, fp, pc}
 8005592:	bf00      	nop

08005594 <_dtoa_r>:
 8005594:	e92d 4ff0 	stmdb	sp!, {r4, r5, r6, r7, r8, r9, sl, fp, lr}
 8005598:	b09b      	sub	sp, #108	; 0x6c
 800559a:	6a46      	ldr	r6, [r0, #36]	; 0x24
 800559c:	4604      	mov	r4, r0
 800559e:	4692      	mov	sl, r2
 80055a0:	469b      	mov	fp, r3
 80055a2:	9d27      	ldr	r5, [sp, #156]	; 0x9c
 80055a4:	2e00      	cmp	r6, #0
 80055a6:	f000 82bb 	beq.w	8005b20 <_dtoa_r+0x58c>
 80055aa:	6833      	ldr	r3, [r6, #0]
 80055ac:	b153      	cbz	r3, 80055c4 <_dtoa_r+0x30>
 80055ae:	6872      	ldr	r2, [r6, #4]
 80055b0:	2601      	movs	r6, #1
 80055b2:	4619      	mov	r1, r3
 80055b4:	4096      	lsls	r6, r2
 80055b6:	609e      	str	r6, [r3, #8]
 80055b8:	605a      	str	r2, [r3, #4]
 80055ba:	f001 fb9d 	bl	8006cf8 <_Bfree>
 80055be:	6a63      	ldr	r3, [r4, #36]	; 0x24
 80055c0:	2200      	movs	r2, #0
 80055c2:	601a      	str	r2, [r3, #0]
 80055c4:	f1bb 0f00 	cmp.w	fp, #0
 80055c8:	bfb4      	ite	lt
 80055ca:	2301      	movlt	r3, #1
 80055cc:	2300      	movge	r3, #0
 80055ce:	602b      	str	r3, [r5, #0]
 80055d0:	f04f 0300 	mov.w	r3, #0
 80055d4:	bfb4      	ite	lt
 80055d6:	f02b 4900 	biclt.w	r9, fp, #2147483648	; 0x80000000
 80055da:	46d9      	movge	r9, fp
 80055dc:	461a      	mov	r2, r3
 80055de:	f6c7 73f0 	movt	r3, #32752	; 0x7ff0
 80055e2:	f6c7 72f0 	movt	r2, #32752	; 0x7ff0
 80055e6:	ea09 0303 	and.w	r3, r9, r3
 80055ea:	bfb8      	it	lt
 80055ec:	46cb      	movlt	fp, r9
 80055ee:	4293      	cmp	r3, r2
 80055f0:	d014      	beq.n	800561c <_dtoa_r+0x88>
 80055f2:	2200      	movs	r2, #0
 80055f4:	2300      	movs	r3, #0
 80055f6:	4650      	mov	r0, sl
 80055f8:	4659      	mov	r1, fp
 80055fa:	f004 f933 	bl	8009864 <__aeabi_dcmpeq>
 80055fe:	4680      	mov	r8, r0
 8005600:	b328      	cbz	r0, 800564e <_dtoa_r+0xba>
 8005602:	9e26      	ldr	r6, [sp, #152]	; 0x98
 8005604:	2301      	movs	r3, #1
 8005606:	6033      	str	r3, [r6, #0]
 8005608:	9e28      	ldr	r6, [sp, #160]	; 0xa0
 800560a:	2e00      	cmp	r6, #0
 800560c:	f000 80dc 	beq.w	80057c8 <_dtoa_r+0x234>
 8005610:	4baf      	ldr	r3, [pc, #700]	; (80058d0 <_dtoa_r+0x33c>)
 8005612:	1e58      	subs	r0, r3, #1
 8005614:	6033      	str	r3, [r6, #0]
 8005616:	b01b      	add	sp, #108	; 0x6c
 8005618:	e8bd 8ff0 	ldmia.w	sp!, {r4, r5, r6, r7, r8, r9, sl, fp, pc}
 800561c:	9e26      	ldr	r6, [sp, #152]	; 0x98
 800561e:	f24a 20ec 	movw	r0, #41708	; 0xa2ec
 8005622:	f242 730f 	movw	r3, #9999	; 0x270f
 8005626:	f6c0 0000 	movt	r0, #2048	; 0x800
 800562a:	6033      	str	r3, [r6, #0]
 800562c:	f1ba 0f00 	cmp.w	sl, #0
 8005630:	f000 80aa 	beq.w	8005788 <_dtoa_r+0x1f4>
 8005634:	9e28      	ldr	r6, [sp, #160]	; 0xa0
 8005636:	2e00      	cmp	r6, #0
 8005638:	d0ed      	beq.n	8005616 <_dtoa_r+0x82>
 800563a:	78c3      	ldrb	r3, [r0, #3]
 800563c:	2b00      	cmp	r3, #0
 800563e:	f040 80b2 	bne.w	80057a6 <_dtoa_r+0x212>
 8005642:	1cc3      	adds	r3, r0, #3
 8005644:	9e28      	ldr	r6, [sp, #160]	; 0xa0
 8005646:	6033      	str	r3, [r6, #0]
 8005648:	b01b      	add	sp, #108	; 0x6c
 800564a:	e8bd 8ff0 	ldmia.w	sp!, {r4, r5, r6, r7, r8, r9, sl, fp, pc}
 800564e:	aa19      	add	r2, sp, #100	; 0x64
 8005650:	ab18      	add	r3, sp, #96	; 0x60
 8005652:	9200      	str	r2, [sp, #0]
 8005654:	4620      	mov	r0, r4
 8005656:	9301      	str	r3, [sp, #4]
 8005658:	4652      	mov	r2, sl
 800565a:	465b      	mov	r3, fp
 800565c:	f001 feb6 	bl	80073cc <__d2b>
 8005660:	ea5f 5519 	movs.w	r5, r9, lsr #20
 8005664:	900b      	str	r0, [sp, #44]	; 0x2c
 8005666:	f040 80a1 	bne.w	80057ac <_dtoa_r+0x218>
 800566a:	9f18      	ldr	r7, [sp, #96]	; 0x60
 800566c:	f46f 6382 	mvn.w	r3, #1040	; 0x410
 8005670:	9d19      	ldr	r5, [sp, #100]	; 0x64
 8005672:	443d      	add	r5, r7
 8005674:	429d      	cmp	r5, r3
 8005676:	f2c0 8278 	blt.w	8005b6a <_dtoa_r+0x5d6>
 800567a:	f64f 430e 	movw	r3, #64526	; 0xfc0e
 800567e:	f205 4212 	addw	r2, r5, #1042	; 0x412
 8005682:	f6cf 73ff 	movt	r3, #65535	; 0xffff
 8005686:	fa2a f202 	lsr.w	r2, sl, r2
 800568a:	1b5b      	subs	r3, r3, r5
 800568c:	fa09 f003 	lsl.w	r0, r9, r3
 8005690:	4310      	orrs	r0, r2
 8005692:	f003 fe09 	bl	80092a8 <__aeabi_ui2d>
 8005696:	3d01      	subs	r5, #1
 8005698:	46b8      	mov	r8, r7
 800569a:	2601      	movs	r6, #1
 800569c:	9615      	str	r6, [sp, #84]	; 0x54
 800569e:	f1a1 71f8 	sub.w	r1, r1, #32505856	; 0x1f00000
 80056a2:	2300      	movs	r3, #0
 80056a4:	2200      	movs	r2, #0
 80056a6:	f6c3 73f8 	movt	r3, #16376	; 0x3ff8
 80056aa:	f003 fcbf 	bl	800902c <__aeabi_dsub>
 80056ae:	a382      	add	r3, pc, #520	; (adr r3, 80058b8 <_dtoa_r+0x324>)
 80056b0:	e9d3 2300 	ldrd	r2, r3, [r3]
 80056b4:	f003 fe6e 	bl	8009394 <__aeabi_dmul>
 80056b8:	a381      	add	r3, pc, #516	; (adr r3, 80058c0 <_dtoa_r+0x32c>)
 80056ba:	e9d3 2300 	ldrd	r2, r3, [r3]
 80056be:	f003 fcb7 	bl	8009030 <__adddf3>
 80056c2:	4606      	mov	r6, r0
 80056c4:	4628      	mov	r0, r5
 80056c6:	460f      	mov	r7, r1
 80056c8:	f003 fdfe 	bl	80092c8 <__aeabi_i2d>
 80056cc:	a37e      	add	r3, pc, #504	; (adr r3, 80058c8 <_dtoa_r+0x334>)
 80056ce:	e9d3 2300 	ldrd	r2, r3, [r3]
 80056d2:	f003 fe5f 	bl	8009394 <__aeabi_dmul>
 80056d6:	4602      	mov	r2, r0
 80056d8:	460b      	mov	r3, r1
 80056da:	4630      	mov	r0, r6
 80056dc:	4639      	mov	r1, r7
 80056de:	f003 fca7 	bl	8009030 <__adddf3>
 80056e2:	4606      	mov	r6, r0
 80056e4:	460f      	mov	r7, r1
 80056e6:	f004 f8ef 	bl	80098c8 <__aeabi_d2iz>
 80056ea:	4639      	mov	r1, r7
 80056ec:	2200      	movs	r2, #0
 80056ee:	2300      	movs	r3, #0
 80056f0:	9004      	str	r0, [sp, #16]
 80056f2:	4630      	mov	r0, r6
 80056f4:	f004 f8c0 	bl	8009878 <__aeabi_dcmplt>
 80056f8:	2800      	cmp	r0, #0
 80056fa:	f040 8226 	bne.w	8005b4a <_dtoa_r+0x5b6>
 80056fe:	9e04      	ldr	r6, [sp, #16]
 8005700:	2e16      	cmp	r6, #22
 8005702:	bf84      	itt	hi
 8005704:	2601      	movhi	r6, #1
 8005706:	960f      	strhi	r6, [sp, #60]	; 0x3c
 8005708:	d812      	bhi.n	8005730 <_dtoa_r+0x19c>
 800570a:	f24a 0178 	movw	r1, #41080	; 0xa078
 800570e:	4652      	mov	r2, sl
 8005710:	f6c0 0100 	movt	r1, #2048	; 0x800
 8005714:	465b      	mov	r3, fp
 8005716:	eb01 01c6 	add.w	r1, r1, r6, lsl #3
 800571a:	e9d1 0100 	ldrd	r0, r1, [r1]
 800571e:	f004 f8c9 	bl	80098b4 <__aeabi_dcmpgt>
 8005722:	2800      	cmp	r0, #0
 8005724:	f000 821f 	beq.w	8005b66 <_dtoa_r+0x5d2>
 8005728:	3e01      	subs	r6, #1
 800572a:	9604      	str	r6, [sp, #16]
 800572c:	2600      	movs	r6, #0
 800572e:	960f      	str	r6, [sp, #60]	; 0x3c
 8005730:	ebc5 0508 	rsb	r5, r5, r8
 8005734:	3d01      	subs	r5, #1
 8005736:	9506      	str	r5, [sp, #24]
 8005738:	bf49      	itett	mi
 800573a:	426e      	negmi	r6, r5
 800573c:	2600      	movpl	r6, #0
 800573e:	960a      	strmi	r6, [sp, #40]	; 0x28
 8005740:	2600      	movmi	r6, #0
 8005742:	bf54      	ite	pl
 8005744:	960a      	strpl	r6, [sp, #40]	; 0x28
 8005746:	9606      	strmi	r6, [sp, #24]
 8005748:	9e04      	ldr	r6, [sp, #16]
 800574a:	2e00      	cmp	r6, #0
 800574c:	f2c0 81f1 	blt.w	8005b32 <_dtoa_r+0x59e>
 8005750:	f8dd e018 	ldr.w	lr, [sp, #24]
 8005754:	960e      	str	r6, [sp, #56]	; 0x38
 8005756:	44b6      	add	lr, r6
 8005758:	2600      	movs	r6, #0
 800575a:	f8cd e018 	str.w	lr, [sp, #24]
 800575e:	960c      	str	r6, [sp, #48]	; 0x30
 8005760:	9e24      	ldr	r6, [sp, #144]	; 0x90
 8005762:	2e09      	cmp	r6, #9
 8005764:	d835      	bhi.n	80057d2 <_dtoa_r+0x23e>
 8005766:	2e05      	cmp	r6, #5
 8005768:	bfc4      	itt	gt
 800576a:	3e04      	subgt	r6, #4
 800576c:	9624      	strgt	r6, [sp, #144]	; 0x90
 800576e:	9e24      	ldr	r6, [sp, #144]	; 0x90
 8005770:	bfcc      	ite	gt
 8005772:	2500      	movgt	r5, #0
 8005774:	2501      	movle	r5, #1
 8005776:	1eb3      	subs	r3, r6, #2
 8005778:	2b03      	cmp	r3, #3
 800577a:	d82c      	bhi.n	80057d6 <_dtoa_r+0x242>
 800577c:	e8df f013 	tbh	[pc, r3, lsl #1]
 8005780:	02290361 	eoreq	r0, r9, #-2080374783	; 0x84000001
 8005784:	058d0370 	streq	r0, [sp, #880]	; 0x370
 8005788:	f24a 22e0 	movw	r2, #41696	; 0xa2e0
 800578c:	f24a 23ec 	movw	r3, #41708	; 0xa2ec
 8005790:	f3c9 0013 	ubfx	r0, r9, #0, #20
 8005794:	f6c0 0200 	movt	r2, #2048	; 0x800
 8005798:	f6c0 0300 	movt	r3, #2048	; 0x800
 800579c:	2800      	cmp	r0, #0
 800579e:	bf0c      	ite	eq
 80057a0:	4610      	moveq	r0, r2
 80057a2:	4618      	movne	r0, r3
 80057a4:	e746      	b.n	8005634 <_dtoa_r+0xa0>
 80057a6:	f100 0308 	add.w	r3, r0, #8
 80057aa:	e74b      	b.n	8005644 <_dtoa_r+0xb0>
 80057ac:	f3cb 0313 	ubfx	r3, fp, #0, #20
 80057b0:	f8cd 8054 	str.w	r8, [sp, #84]	; 0x54
 80057b4:	f043 537f 	orr.w	r3, r3, #1069547520	; 0x3fc00000
 80057b8:	4650      	mov	r0, sl
 80057ba:	f2a5 35ff 	subw	r5, r5, #1023	; 0x3ff
 80057be:	f8dd 8060 	ldr.w	r8, [sp, #96]	; 0x60
 80057c2:	f443 1140 	orr.w	r1, r3, #3145728	; 0x300000
 80057c6:	e76c      	b.n	80056a2 <_dtoa_r+0x10e>
 80057c8:	f24a 20dc 	movw	r0, #41692	; 0xa2dc
 80057cc:	f6c0 0000 	movt	r0, #2048	; 0x800
 80057d0:	e721      	b.n	8005616 <_dtoa_r+0x82>
 80057d2:	2600      	movs	r6, #0
 80057d4:	9624      	str	r6, [sp, #144]	; 0x90
 80057d6:	6a65      	ldr	r5, [r4, #36]	; 0x24
 80057d8:	2300      	movs	r3, #0
 80057da:	4619      	mov	r1, r3
 80057dc:	4620      	mov	r0, r4
 80057de:	f04f 36ff 	mov.w	r6, #4294967295
 80057e2:	9325      	str	r3, [sp, #148]	; 0x94
 80057e4:	606b      	str	r3, [r5, #4]
 80057e6:	9609      	str	r6, [sp, #36]	; 0x24
 80057e8:	9614      	str	r6, [sp, #80]	; 0x50
 80057ea:	f001 fa4f 	bl	8006c8c <_Balloc>
 80057ee:	6a63      	ldr	r3, [r4, #36]	; 0x24
 80057f0:	2601      	movs	r6, #1
 80057f2:	960d      	str	r6, [sp, #52]	; 0x34
 80057f4:	6028      	str	r0, [r5, #0]
 80057f6:	681b      	ldr	r3, [r3, #0]
 80057f8:	9308      	str	r3, [sp, #32]
 80057fa:	9b19      	ldr	r3, [sp, #100]	; 0x64
 80057fc:	2b00      	cmp	r3, #0
 80057fe:	f2c0 80c7 	blt.w	8005990 <_dtoa_r+0x3fc>
 8005802:	9e04      	ldr	r6, [sp, #16]
 8005804:	2e0e      	cmp	r6, #14
 8005806:	f300 80c3 	bgt.w	8005990 <_dtoa_r+0x3fc>
 800580a:	f8dd e094 	ldr.w	lr, [sp, #148]	; 0x94
 800580e:	f24a 0378 	movw	r3, #41080	; 0xa078
 8005812:	9e09      	ldr	r6, [sp, #36]	; 0x24
 8005814:	f6c0 0300 	movt	r3, #2048	; 0x800
 8005818:	ea4f 72de 	mov.w	r2, lr, lsr #31
 800581c:	2e00      	cmp	r6, #0
 800581e:	bfcc      	ite	gt
 8005820:	2200      	movgt	r2, #0
 8005822:	f002 0201 	andle.w	r2, r2, #1
 8005826:	9e04      	ldr	r6, [sp, #16]
 8005828:	eb03 03c6 	add.w	r3, r3, r6, lsl #3
 800582c:	e9d3 0100 	ldrd	r0, r1, [r3]
 8005830:	e9cd 0106 	strd	r0, r1, [sp, #24]
 8005834:	2a00      	cmp	r2, #0
 8005836:	f040 846e 	bne.w	8006116 <_dtoa_r+0xb82>
 800583a:	4602      	mov	r2, r0
 800583c:	460b      	mov	r3, r1
 800583e:	4650      	mov	r0, sl
 8005840:	4659      	mov	r1, fp
 8005842:	f003 fed1 	bl	80095e8 <__aeabi_ddiv>
 8005846:	9e08      	ldr	r6, [sp, #32]
 8005848:	f004 f83e 	bl	80098c8 <__aeabi_d2iz>
 800584c:	1c75      	adds	r5, r6, #1
 800584e:	4680      	mov	r8, r0
 8005850:	f003 fd3a 	bl	80092c8 <__aeabi_i2d>
 8005854:	e9dd 2306 	ldrd	r2, r3, [sp, #24]
 8005858:	f003 fd9c 	bl	8009394 <__aeabi_dmul>
 800585c:	4602      	mov	r2, r0
 800585e:	460b      	mov	r3, r1
 8005860:	4650      	mov	r0, sl
 8005862:	4659      	mov	r1, fp
 8005864:	f003 fbe2 	bl	800902c <__aeabi_dsub>
 8005868:	9a09      	ldr	r2, [sp, #36]	; 0x24
 800586a:	f8dd e020 	ldr.w	lr, [sp, #32]
 800586e:	f108 0330 	add.w	r3, r8, #48	; 0x30
 8005872:	2a01      	cmp	r2, #1
 8005874:	f88e 3000 	strb.w	r3, [lr]
 8005878:	4606      	mov	r6, r0
 800587a:	460f      	mov	r7, r1
 800587c:	d05b      	beq.n	8005936 <_dtoa_r+0x3a2>
 800587e:	2300      	movs	r3, #0
 8005880:	2200      	movs	r2, #0
 8005882:	f2c4 0324 	movt	r3, #16420	; 0x4024
 8005886:	f003 fd85 	bl	8009394 <__aeabi_dmul>
 800588a:	2200      	movs	r2, #0
 800588c:	2300      	movs	r3, #0
 800588e:	4606      	mov	r6, r0
 8005890:	460f      	mov	r7, r1
 8005892:	f003 ffe7 	bl	8009864 <__aeabi_dcmpeq>
 8005896:	2800      	cmp	r0, #0
 8005898:	f040 8519 	bne.w	80062ce <_dtoa_r+0xd3a>
 800589c:	f8dd a020 	ldr.w	sl, [sp, #32]
 80058a0:	9809      	ldr	r0, [sp, #36]	; 0x24
 80058a2:	9908      	ldr	r1, [sp, #32]
 80058a4:	4482      	add	sl, r0
 80058a6:	f8cd a00c 	str.w	sl, [sp, #12]
 80058aa:	f101 0902 	add.w	r9, r1, #2
 80058ae:	e9dd ab06 	ldrd	sl, fp, [sp, #24]
 80058b2:	e01a      	b.n	80058ea <_dtoa_r+0x356>
 80058b4:	f3af 8000 	nop.w
 80058b8:	636f4361 	cmnvs	pc, #-2080374783	; 0x84000001
 80058bc:	3fd287a7 	svccc	0x00d287a7
 80058c0:	8b60c8b3 	blhi	9837b94 <__RW_LOAD_ADDR__+0x182d894>
 80058c4:	3fc68a28 	svccc	0x00c68a28
 80058c8:	509f79fb 			; <UNDEFINED> instruction: 0x509f79fb
 80058cc:	3fd34413 	svccc	0x00d34413
 80058d0:	0800a2dd 	stmdaeq	r0, {r0, r2, r3, r4, r6, r7, r9, sp, pc}
 80058d4:	f003 fd5e 	bl	8009394 <__aeabi_dmul>
 80058d8:	2200      	movs	r2, #0
 80058da:	2300      	movs	r3, #0
 80058dc:	4606      	mov	r6, r0
 80058de:	460f      	mov	r7, r1
 80058e0:	f003 ffc0 	bl	8009864 <__aeabi_dcmpeq>
 80058e4:	2800      	cmp	r0, #0
 80058e6:	f040 84f2 	bne.w	80062ce <_dtoa_r+0xd3a>
 80058ea:	4652      	mov	r2, sl
 80058ec:	465b      	mov	r3, fp
 80058ee:	4630      	mov	r0, r6
 80058f0:	4639      	mov	r1, r7
 80058f2:	f003 fe79 	bl	80095e8 <__aeabi_ddiv>
 80058f6:	464d      	mov	r5, r9
 80058f8:	f003 ffe6 	bl	80098c8 <__aeabi_d2iz>
 80058fc:	4680      	mov	r8, r0
 80058fe:	f003 fce3 	bl	80092c8 <__aeabi_i2d>
 8005902:	4652      	mov	r2, sl
 8005904:	465b      	mov	r3, fp
 8005906:	f003 fd45 	bl	8009394 <__aeabi_dmul>
 800590a:	4602      	mov	r2, r0
 800590c:	460b      	mov	r3, r1
 800590e:	4630      	mov	r0, r6
 8005910:	4639      	mov	r1, r7
 8005912:	f003 fb8b 	bl	800902c <__aeabi_dsub>
 8005916:	f108 0e30 	add.w	lr, r8, #48	; 0x30
 800591a:	f809 ec01 	strb.w	lr, [r9, #-1]
 800591e:	2300      	movs	r3, #0
 8005920:	f8dd e00c 	ldr.w	lr, [sp, #12]
 8005924:	2200      	movs	r2, #0
 8005926:	f2c4 0324 	movt	r3, #16420	; 0x4024
 800592a:	45f1      	cmp	r9, lr
 800592c:	f109 0901 	add.w	r9, r9, #1
 8005930:	4606      	mov	r6, r0
 8005932:	460f      	mov	r7, r1
 8005934:	d1ce      	bne.n	80058d4 <_dtoa_r+0x340>
 8005936:	4632      	mov	r2, r6
 8005938:	463b      	mov	r3, r7
 800593a:	4630      	mov	r0, r6
 800593c:	4639      	mov	r1, r7
 800593e:	f003 fb77 	bl	8009030 <__adddf3>
 8005942:	4606      	mov	r6, r0
 8005944:	460f      	mov	r7, r1
 8005946:	4632      	mov	r2, r6
 8005948:	e9dd 0106 	ldrd	r0, r1, [sp, #24]
 800594c:	463b      	mov	r3, r7
 800594e:	f003 ff93 	bl	8009878 <__aeabi_dcmplt>
 8005952:	2800      	cmp	r0, #0
 8005954:	f000 8570 	beq.w	8006438 <_dtoa_r+0xea4>
 8005958:	f8dd 9020 	ldr.w	r9, [sp, #32]
 800595c:	9e04      	ldr	r6, [sp, #16]
 800595e:	462a      	mov	r2, r5
 8005960:	f815 8c01 	ldrb.w	r8, [r5, #-1]
 8005964:	9508      	str	r5, [sp, #32]
 8005966:	9616      	str	r6, [sp, #88]	; 0x58
 8005968:	e005      	b.n	8005976 <_dtoa_r+0x3e2>
 800596a:	454b      	cmp	r3, r9
 800596c:	f000 84b8 	beq.w	80062e0 <_dtoa_r+0xd4c>
 8005970:	f813 8c01 	ldrb.w	r8, [r3, #-1]
 8005974:	461a      	mov	r2, r3
 8005976:	f1b8 0f39 	cmp.w	r8, #57	; 0x39
 800597a:	f102 33ff 	add.w	r3, r2, #4294967295
 800597e:	d0f4      	beq.n	800596a <_dtoa_r+0x3d6>
 8005980:	9e16      	ldr	r6, [sp, #88]	; 0x58
 8005982:	9208      	str	r2, [sp, #32]
 8005984:	f108 0201 	add.w	r2, r8, #1
 8005988:	9604      	str	r6, [sp, #16]
 800598a:	b2d2      	uxtb	r2, r2
 800598c:	701a      	strb	r2, [r3, #0]
 800598e:	e0b1      	b.n	8005af4 <_dtoa_r+0x560>
 8005990:	9e0d      	ldr	r6, [sp, #52]	; 0x34
 8005992:	2e00      	cmp	r6, #0
 8005994:	f040 80f1 	bne.w	8005b7a <_dtoa_r+0x5e6>
 8005998:	9e0c      	ldr	r6, [sp, #48]	; 0x30
 800599a:	9d0a      	ldr	r5, [sp, #40]	; 0x28
 800599c:	f8dd 8034 	ldr.w	r8, [sp, #52]	; 0x34
 80059a0:	9806      	ldr	r0, [sp, #24]
 80059a2:	2800      	cmp	r0, #0
 80059a4:	bfc8      	it	gt
 80059a6:	2d00      	cmpgt	r5, #0
 80059a8:	dd09      	ble.n	80059be <_dtoa_r+0x42a>
 80059aa:	4603      	mov	r3, r0
 80059ac:	990a      	ldr	r1, [sp, #40]	; 0x28
 80059ae:	42ab      	cmp	r3, r5
 80059b0:	bfa8      	it	ge
 80059b2:	462b      	movge	r3, r5
 80059b4:	1aed      	subs	r5, r5, r3
 80059b6:	1ac9      	subs	r1, r1, r3
 80059b8:	1ac0      	subs	r0, r0, r3
 80059ba:	910a      	str	r1, [sp, #40]	; 0x28
 80059bc:	9006      	str	r0, [sp, #24]
 80059be:	9a0c      	ldr	r2, [sp, #48]	; 0x30
 80059c0:	2a00      	cmp	r2, #0
 80059c2:	dd1c      	ble.n	80059fe <_dtoa_r+0x46a>
 80059c4:	9b0d      	ldr	r3, [sp, #52]	; 0x34
 80059c6:	2b00      	cmp	r3, #0
 80059c8:	f000 8479 	beq.w	80062be <_dtoa_r+0xd2a>
 80059cc:	2e00      	cmp	r6, #0
 80059ce:	dd10      	ble.n	80059f2 <_dtoa_r+0x45e>
 80059d0:	4641      	mov	r1, r8
 80059d2:	4632      	mov	r2, r6
 80059d4:	4620      	mov	r0, r4
 80059d6:	f001 fb31 	bl	800703c <__pow5mult>
 80059da:	9a0b      	ldr	r2, [sp, #44]	; 0x2c
 80059dc:	4680      	mov	r8, r0
 80059de:	4620      	mov	r0, r4
 80059e0:	4641      	mov	r1, r8
 80059e2:	f001 fa8b 	bl	8006efc <__multiply>
 80059e6:	990b      	ldr	r1, [sp, #44]	; 0x2c
 80059e8:	4607      	mov	r7, r0
 80059ea:	4620      	mov	r0, r4
 80059ec:	f001 f984 	bl	8006cf8 <_Bfree>
 80059f0:	970b      	str	r7, [sp, #44]	; 0x2c
 80059f2:	f8dd e030 	ldr.w	lr, [sp, #48]	; 0x30
 80059f6:	ebbe 0206 	subs.w	r2, lr, r6
 80059fa:	f040 84a7 	bne.w	800634c <_dtoa_r+0xdb8>
 80059fe:	4620      	mov	r0, r4
 8005a00:	2101      	movs	r1, #1
 8005a02:	f001 fa71 	bl	8006ee8 <__i2b>
 8005a06:	4606      	mov	r6, r0
 8005a08:	980e      	ldr	r0, [sp, #56]	; 0x38
 8005a0a:	2800      	cmp	r0, #0
 8005a0c:	dd05      	ble.n	8005a1a <_dtoa_r+0x486>
 8005a0e:	4631      	mov	r1, r6
 8005a10:	4620      	mov	r0, r4
 8005a12:	9a0e      	ldr	r2, [sp, #56]	; 0x38
 8005a14:	f001 fb12 	bl	800703c <__pow5mult>
 8005a18:	4606      	mov	r6, r0
 8005a1a:	9924      	ldr	r1, [sp, #144]	; 0x90
 8005a1c:	2901      	cmp	r1, #1
 8005a1e:	f340 8390 	ble.w	8006142 <_dtoa_r+0xbae>
 8005a22:	2700      	movs	r7, #0
 8005a24:	980e      	ldr	r0, [sp, #56]	; 0x38
 8005a26:	2800      	cmp	r0, #0
 8005a28:	f040 836c 	bne.w	8006104 <_dtoa_r+0xb70>
 8005a2c:	2001      	movs	r0, #1
 8005a2e:	9b06      	ldr	r3, [sp, #24]
 8005a30:	4403      	add	r3, r0
 8005a32:	f013 031f 	ands.w	r3, r3, #31
 8005a36:	f000 8293 	beq.w	8005f60 <_dtoa_r+0x9cc>
 8005a3a:	f1c3 0220 	rsb	r2, r3, #32
 8005a3e:	2a04      	cmp	r2, #4
 8005a40:	f340 8568 	ble.w	8006514 <_dtoa_r+0xf80>
 8005a44:	f1c3 031c 	rsb	r3, r3, #28
 8005a48:	990a      	ldr	r1, [sp, #40]	; 0x28
 8005a4a:	9a06      	ldr	r2, [sp, #24]
 8005a4c:	441d      	add	r5, r3
 8005a4e:	4419      	add	r1, r3
 8005a50:	910a      	str	r1, [sp, #40]	; 0x28
 8005a52:	441a      	add	r2, r3
 8005a54:	9206      	str	r2, [sp, #24]
 8005a56:	990a      	ldr	r1, [sp, #40]	; 0x28
 8005a58:	2900      	cmp	r1, #0
 8005a5a:	dd05      	ble.n	8005a68 <_dtoa_r+0x4d4>
 8005a5c:	990b      	ldr	r1, [sp, #44]	; 0x2c
 8005a5e:	4620      	mov	r0, r4
 8005a60:	9a0a      	ldr	r2, [sp, #40]	; 0x28
 8005a62:	f001 fb47 	bl	80070f4 <__lshift>
 8005a66:	900b      	str	r0, [sp, #44]	; 0x2c
 8005a68:	9a06      	ldr	r2, [sp, #24]
 8005a6a:	2a00      	cmp	r2, #0
 8005a6c:	dd04      	ble.n	8005a78 <_dtoa_r+0x4e4>
 8005a6e:	4631      	mov	r1, r6
 8005a70:	4620      	mov	r0, r4
 8005a72:	f001 fb3f 	bl	80070f4 <__lshift>
 8005a76:	4606      	mov	r6, r0
 8005a78:	9b0f      	ldr	r3, [sp, #60]	; 0x3c
 8005a7a:	2b00      	cmp	r3, #0
 8005a7c:	f040 8321 	bne.w	80060c2 <_dtoa_r+0xb2e>
 8005a80:	9824      	ldr	r0, [sp, #144]	; 0x90
 8005a82:	9909      	ldr	r1, [sp, #36]	; 0x24
 8005a84:	2802      	cmp	r0, #2
 8005a86:	bfd4      	ite	le
 8005a88:	2300      	movle	r3, #0
 8005a8a:	2301      	movgt	r3, #1
 8005a8c:	2900      	cmp	r1, #0
 8005a8e:	bfc8      	it	gt
 8005a90:	2300      	movgt	r3, #0
 8005a92:	2b00      	cmp	r3, #0
 8005a94:	f000 821a 	beq.w	8005ecc <_dtoa_r+0x938>
 8005a98:	9809      	ldr	r0, [sp, #36]	; 0x24
 8005a9a:	2800      	cmp	r0, #0
 8005a9c:	f040 820f 	bne.w	8005ebe <_dtoa_r+0x92a>
 8005aa0:	4631      	mov	r1, r6
 8005aa2:	4603      	mov	r3, r0
 8005aa4:	2205      	movs	r2, #5
 8005aa6:	4620      	mov	r0, r4
 8005aa8:	f001 f942 	bl	8006d30 <__multadd>
 8005aac:	4606      	mov	r6, r0
 8005aae:	980b      	ldr	r0, [sp, #44]	; 0x2c
 8005ab0:	4631      	mov	r1, r6
 8005ab2:	f001 fb7b 	bl	80071ac <__mcmp>
 8005ab6:	2800      	cmp	r0, #0
 8005ab8:	f340 8201 	ble.w	8005ebe <_dtoa_r+0x92a>
 8005abc:	f8dd 9020 	ldr.w	r9, [sp, #32]
 8005ac0:	2500      	movs	r5, #0
 8005ac2:	9a04      	ldr	r2, [sp, #16]
 8005ac4:	2331      	movs	r3, #49	; 0x31
 8005ac6:	3201      	adds	r2, #1
 8005ac8:	f889 3000 	strb.w	r3, [r9]
 8005acc:	9204      	str	r2, [sp, #16]
 8005ace:	f109 0301 	add.w	r3, r9, #1
 8005ad2:	9308      	str	r3, [sp, #32]
 8005ad4:	4631      	mov	r1, r6
 8005ad6:	4620      	mov	r0, r4
 8005ad8:	f001 f90e 	bl	8006cf8 <_Bfree>
 8005adc:	f1b8 0f00 	cmp.w	r8, #0
 8005ae0:	d008      	beq.n	8005af4 <_dtoa_r+0x560>
 8005ae2:	4545      	cmp	r5, r8
 8005ae4:	bf18      	it	ne
 8005ae6:	2d00      	cmpne	r5, #0
 8005ae8:	f040 824a 	bne.w	8005f80 <_dtoa_r+0x9ec>
 8005aec:	4641      	mov	r1, r8
 8005aee:	4620      	mov	r0, r4
 8005af0:	f001 f902 	bl	8006cf8 <_Bfree>
 8005af4:	4620      	mov	r0, r4
 8005af6:	990b      	ldr	r1, [sp, #44]	; 0x2c
 8005af8:	f001 f8fe 	bl	8006cf8 <_Bfree>
 8005afc:	9e04      	ldr	r6, [sp, #16]
 8005afe:	2200      	movs	r2, #0
 8005b00:	4648      	mov	r0, r9
 8005b02:	1c73      	adds	r3, r6, #1
 8005b04:	9e08      	ldr	r6, [sp, #32]
 8005b06:	7032      	strb	r2, [r6, #0]
 8005b08:	9e26      	ldr	r6, [sp, #152]	; 0x98
 8005b0a:	6033      	str	r3, [r6, #0]
 8005b0c:	9e28      	ldr	r6, [sp, #160]	; 0xa0
 8005b0e:	2e00      	cmp	r6, #0
 8005b10:	f43f ad81 	beq.w	8005616 <_dtoa_r+0x82>
 8005b14:	9808      	ldr	r0, [sp, #32]
 8005b16:	6030      	str	r0, [r6, #0]
 8005b18:	4648      	mov	r0, r9
 8005b1a:	b01b      	add	sp, #108	; 0x6c
 8005b1c:	e8bd 8ff0 	ldmia.w	sp!, {r4, r5, r6, r7, r8, r9, sl, fp, pc}
 8005b20:	2010      	movs	r0, #16
 8005b22:	f000 fd4b 	bl	80065bc <malloc>
 8005b26:	6260      	str	r0, [r4, #36]	; 0x24
 8005b28:	6046      	str	r6, [r0, #4]
 8005b2a:	6086      	str	r6, [r0, #8]
 8005b2c:	6006      	str	r6, [r0, #0]
 8005b2e:	60c6      	str	r6, [r0, #12]
 8005b30:	e548      	b.n	80055c4 <_dtoa_r+0x30>
 8005b32:	9e0a      	ldr	r6, [sp, #40]	; 0x28
 8005b34:	f8dd e010 	ldr.w	lr, [sp, #16]
 8005b38:	ebce 0606 	rsb	r6, lr, r6
 8005b3c:	960a      	str	r6, [sp, #40]	; 0x28
 8005b3e:	f1ce 0600 	rsb	r6, lr, #0
 8005b42:	960c      	str	r6, [sp, #48]	; 0x30
 8005b44:	2600      	movs	r6, #0
 8005b46:	960e      	str	r6, [sp, #56]	; 0x38
 8005b48:	e60a      	b.n	8005760 <_dtoa_r+0x1cc>
 8005b4a:	9804      	ldr	r0, [sp, #16]
 8005b4c:	f003 fbbc 	bl	80092c8 <__aeabi_i2d>
 8005b50:	4632      	mov	r2, r6
 8005b52:	463b      	mov	r3, r7
 8005b54:	f003 fe86 	bl	8009864 <__aeabi_dcmpeq>
 8005b58:	2800      	cmp	r0, #0
 8005b5a:	f47f add0 	bne.w	80056fe <_dtoa_r+0x16a>
 8005b5e:	9e04      	ldr	r6, [sp, #16]
 8005b60:	3e01      	subs	r6, #1
 8005b62:	9604      	str	r6, [sp, #16]
 8005b64:	e5cb      	b.n	80056fe <_dtoa_r+0x16a>
 8005b66:	900f      	str	r0, [sp, #60]	; 0x3c
 8005b68:	e5e2      	b.n	8005730 <_dtoa_r+0x19c>
 8005b6a:	f64f 30ee 	movw	r0, #64494	; 0xfbee
 8005b6e:	f6cf 70ff 	movt	r0, #65535	; 0xffff
 8005b72:	1b40      	subs	r0, r0, r5
 8005b74:	fa0a f000 	lsl.w	r0, sl, r0
 8005b78:	e58b      	b.n	8005692 <_dtoa_r+0xfe>
 8005b7a:	9e24      	ldr	r6, [sp, #144]	; 0x90
 8005b7c:	2e01      	cmp	r6, #1
 8005b7e:	f340 8415 	ble.w	80063ac <_dtoa_r+0xe18>
 8005b82:	9809      	ldr	r0, [sp, #36]	; 0x24
 8005b84:	990c      	ldr	r1, [sp, #48]	; 0x30
 8005b86:	1e46      	subs	r6, r0, #1
 8005b88:	9809      	ldr	r0, [sp, #36]	; 0x24
 8005b8a:	42b1      	cmp	r1, r6
 8005b8c:	bfaf      	iteee	ge
 8005b8e:	ebc6 0601 	rsbge	r6, r6, r1
 8005b92:	9a0c      	ldrlt	r2, [sp, #48]	; 0x30
 8005b94:	960c      	strlt	r6, [sp, #48]	; 0x30
 8005b96:	ebc2 0306 	rsblt	r3, r2, r6
 8005b9a:	bfbf      	itttt	lt
 8005b9c:	9e0e      	ldrlt	r6, [sp, #56]	; 0x38
 8005b9e:	18f6      	addlt	r6, r6, r3
 8005ba0:	960e      	strlt	r6, [sp, #56]	; 0x38
 8005ba2:	2600      	movlt	r6, #0
 8005ba4:	2800      	cmp	r0, #0
 8005ba6:	bfb9      	ittee	lt
 8005ba8:	2300      	movlt	r3, #0
 8005baa:	990a      	ldrlt	r1, [sp, #40]	; 0x28
 8005bac:	9d0a      	ldrge	r5, [sp, #40]	; 0x28
 8005bae:	9b09      	ldrge	r3, [sp, #36]	; 0x24
 8005bb0:	bfb8      	it	lt
 8005bb2:	ebc0 0501 	rsblt	r5, r0, r1
 8005bb6:	9a0a      	ldr	r2, [sp, #40]	; 0x28
 8005bb8:	4620      	mov	r0, r4
 8005bba:	f8dd e018 	ldr.w	lr, [sp, #24]
 8005bbe:	2101      	movs	r1, #1
 8005bc0:	441a      	add	r2, r3
 8005bc2:	920a      	str	r2, [sp, #40]	; 0x28
 8005bc4:	449e      	add	lr, r3
 8005bc6:	f8cd e018 	str.w	lr, [sp, #24]
 8005bca:	f001 f98d 	bl	8006ee8 <__i2b>
 8005bce:	4680      	mov	r8, r0
 8005bd0:	e6e6      	b.n	80059a0 <_dtoa_r+0x40c>
 8005bd2:	2600      	movs	r6, #0
 8005bd4:	960d      	str	r6, [sp, #52]	; 0x34
 8005bd6:	9e04      	ldr	r6, [sp, #16]
 8005bd8:	f8dd e094 	ldr.w	lr, [sp, #148]	; 0x94
 8005bdc:	44b6      	add	lr, r6
 8005bde:	f8cd e050 	str.w	lr, [sp, #80]	; 0x50
 8005be2:	f10e 0601 	add.w	r6, lr, #1
 8005be6:	9609      	str	r6, [sp, #36]	; 0x24
 8005be8:	2e00      	cmp	r6, #0
 8005bea:	f340 8359 	ble.w	80062a0 <_dtoa_r+0xd0c>
 8005bee:	9e09      	ldr	r6, [sp, #36]	; 0x24
 8005bf0:	2e0e      	cmp	r6, #14
 8005bf2:	bf8c      	ite	hi
 8005bf4:	2500      	movhi	r5, #0
 8005bf6:	f005 0501 	andls.w	r5, r5, #1
 8005bfa:	4637      	mov	r7, r6
 8005bfc:	6a66      	ldr	r6, [r4, #36]	; 0x24
 8005bfe:	2f17      	cmp	r7, #23
 8005c00:	f04f 0100 	mov.w	r1, #0
 8005c04:	6071      	str	r1, [r6, #4]
 8005c06:	d909      	bls.n	8005c1c <_dtoa_r+0x688>
 8005c08:	2201      	movs	r2, #1
 8005c0a:	2304      	movs	r3, #4
 8005c0c:	005b      	lsls	r3, r3, #1
 8005c0e:	4611      	mov	r1, r2
 8005c10:	f103 0014 	add.w	r0, r3, #20
 8005c14:	3201      	adds	r2, #1
 8005c16:	42b8      	cmp	r0, r7
 8005c18:	d9f8      	bls.n	8005c0c <_dtoa_r+0x678>
 8005c1a:	6071      	str	r1, [r6, #4]
 8005c1c:	4620      	mov	r0, r4
 8005c1e:	f001 f835 	bl	8006c8c <_Balloc>
 8005c22:	6a63      	ldr	r3, [r4, #36]	; 0x24
 8005c24:	6030      	str	r0, [r6, #0]
 8005c26:	681b      	ldr	r3, [r3, #0]
 8005c28:	9308      	str	r3, [sp, #32]
 8005c2a:	2d00      	cmp	r5, #0
 8005c2c:	f43f ade5 	beq.w	80057fa <_dtoa_r+0x266>
 8005c30:	9e04      	ldr	r6, [sp, #16]
 8005c32:	e9cd ab12 	strd	sl, fp, [sp, #72]	; 0x48
 8005c36:	2e00      	cmp	r6, #0
 8005c38:	f340 81ab 	ble.w	8005f92 <_dtoa_r+0x9fe>
 8005c3c:	f006 020f 	and.w	r2, r6, #15
 8005c40:	f24a 0378 	movw	r3, #41080	; 0xa078
 8005c44:	1135      	asrs	r5, r6, #4
 8005c46:	f6c0 0300 	movt	r3, #2048	; 0x800
 8005c4a:	eb03 03c2 	add.w	r3, r3, r2, lsl #3
 8005c4e:	06e9      	lsls	r1, r5, #27
 8005c50:	e9d3 6700 	ldrd	r6, r7, [r3]
 8005c54:	f140 818f 	bpl.w	8005f76 <_dtoa_r+0x9e2>
 8005c58:	f24a 1368 	movw	r3, #41320	; 0xa168
 8005c5c:	4650      	mov	r0, sl
 8005c5e:	f6c0 0300 	movt	r3, #2048	; 0x800
 8005c62:	4659      	mov	r1, fp
 8005c64:	f005 050f 	and.w	r5, r5, #15
 8005c68:	f04f 0803 	mov.w	r8, #3
 8005c6c:	e9d3 2308 	ldrd	r2, r3, [r3, #32]
 8005c70:	f003 fcba 	bl	80095e8 <__aeabi_ddiv>
 8005c74:	4682      	mov	sl, r0
 8005c76:	468b      	mov	fp, r1
 8005c78:	b19d      	cbz	r5, 8005ca2 <_dtoa_r+0x70e>
 8005c7a:	f24a 1968 	movw	r9, #41320	; 0xa168
 8005c7e:	f6c0 0900 	movt	r9, #2048	; 0x800
 8005c82:	07ea      	lsls	r2, r5, #31
 8005c84:	4630      	mov	r0, r6
 8005c86:	4639      	mov	r1, r7
 8005c88:	d507      	bpl.n	8005c9a <_dtoa_r+0x706>
 8005c8a:	e9d9 2300 	ldrd	r2, r3, [r9]
 8005c8e:	f108 0801 	add.w	r8, r8, #1
 8005c92:	f003 fb7f 	bl	8009394 <__aeabi_dmul>
 8005c96:	4606      	mov	r6, r0
 8005c98:	460f      	mov	r7, r1
 8005c9a:	106d      	asrs	r5, r5, #1
 8005c9c:	f109 0908 	add.w	r9, r9, #8
 8005ca0:	d1ef      	bne.n	8005c82 <_dtoa_r+0x6ee>
 8005ca2:	4632      	mov	r2, r6
 8005ca4:	463b      	mov	r3, r7
 8005ca6:	4650      	mov	r0, sl
 8005ca8:	4659      	mov	r1, fp
 8005caa:	f003 fc9d 	bl	80095e8 <__aeabi_ddiv>
 8005cae:	4606      	mov	r6, r0
 8005cb0:	460f      	mov	r7, r1
 8005cb2:	980f      	ldr	r0, [sp, #60]	; 0x3c
 8005cb4:	b150      	cbz	r0, 8005ccc <_dtoa_r+0x738>
 8005cb6:	2300      	movs	r3, #0
 8005cb8:	4630      	mov	r0, r6
 8005cba:	4639      	mov	r1, r7
 8005cbc:	2200      	movs	r2, #0
 8005cbe:	f6c3 73f0 	movt	r3, #16368	; 0x3ff0
 8005cc2:	f003 fdd9 	bl	8009878 <__aeabi_dcmplt>
 8005cc6:	2800      	cmp	r0, #0
 8005cc8:	f040 8315 	bne.w	80062f6 <_dtoa_r+0xd62>
 8005ccc:	4640      	mov	r0, r8
 8005cce:	f003 fafb 	bl	80092c8 <__aeabi_i2d>
 8005cd2:	4632      	mov	r2, r6
 8005cd4:	463b      	mov	r3, r7
 8005cd6:	f003 fb5d 	bl	8009394 <__aeabi_dmul>
 8005cda:	2300      	movs	r3, #0
 8005cdc:	2200      	movs	r2, #0
 8005cde:	f2c4 031c 	movt	r3, #16412	; 0x401c
 8005ce2:	f003 f9a5 	bl	8009030 <__adddf3>
 8005ce6:	4680      	mov	r8, r0
 8005ce8:	9809      	ldr	r0, [sp, #36]	; 0x24
 8005cea:	f1a1 7950 	sub.w	r9, r1, #54525952	; 0x3400000
 8005cee:	2800      	cmp	r0, #0
 8005cf0:	f000 80c9 	beq.w	8005e86 <_dtoa_r+0x8f2>
 8005cf4:	9904      	ldr	r1, [sp, #16]
 8005cf6:	f8dd c024 	ldr.w	ip, [sp, #36]	; 0x24
 8005cfa:	9116      	str	r1, [sp, #88]	; 0x58
 8005cfc:	9a0d      	ldr	r2, [sp, #52]	; 0x34
 8005cfe:	2a00      	cmp	r2, #0
 8005d00:	f000 8179 	beq.w	8005ff6 <_dtoa_r+0xa62>
 8005d04:	f24a 0378 	movw	r3, #41080	; 0xa078
 8005d08:	9a08      	ldr	r2, [sp, #32]
 8005d0a:	f6c0 0300 	movt	r3, #2048	; 0x800
 8005d0e:	2100      	movs	r1, #0
 8005d10:	eb03 03cc 	add.w	r3, r3, ip, lsl #3
 8005d14:	2000      	movs	r0, #0
 8005d16:	f6c3 71e0 	movt	r1, #16352	; 0x3fe0
 8005d1a:	1c55      	adds	r5, r2, #1
 8005d1c:	e953 2302 	ldrd	r2, r3, [r3, #-8]
 8005d20:	f8cd c008 	str.w	ip, [sp, #8]
 8005d24:	f003 fc60 	bl	80095e8 <__aeabi_ddiv>
 8005d28:	4642      	mov	r2, r8
 8005d2a:	464b      	mov	r3, r9
 8005d2c:	f003 f97e 	bl	800902c <__aeabi_dsub>
 8005d30:	4682      	mov	sl, r0
 8005d32:	468b      	mov	fp, r1
 8005d34:	4630      	mov	r0, r6
 8005d36:	4639      	mov	r1, r7
 8005d38:	f003 fdc6 	bl	80098c8 <__aeabi_d2iz>
 8005d3c:	4680      	mov	r8, r0
 8005d3e:	f003 fac3 	bl	80092c8 <__aeabi_i2d>
 8005d42:	f108 0830 	add.w	r8, r8, #48	; 0x30
 8005d46:	fa5f f888 	uxtb.w	r8, r8
 8005d4a:	4602      	mov	r2, r0
 8005d4c:	460b      	mov	r3, r1
 8005d4e:	4630      	mov	r0, r6
 8005d50:	4639      	mov	r1, r7
 8005d52:	f003 f96b 	bl	800902c <__aeabi_dsub>
 8005d56:	f8dd e020 	ldr.w	lr, [sp, #32]
 8005d5a:	f88e 8000 	strb.w	r8, [lr]
 8005d5e:	4606      	mov	r6, r0
 8005d60:	460f      	mov	r7, r1
 8005d62:	4650      	mov	r0, sl
 8005d64:	4659      	mov	r1, fp
 8005d66:	4632      	mov	r2, r6
 8005d68:	463b      	mov	r3, r7
 8005d6a:	f003 fda3 	bl	80098b4 <__aeabi_dcmpgt>
 8005d6e:	2800      	cmp	r0, #0
 8005d70:	f040 83c2 	bne.w	80064f8 <_dtoa_r+0xf64>
 8005d74:	2100      	movs	r1, #0
 8005d76:	4632      	mov	r2, r6
 8005d78:	463b      	mov	r3, r7
 8005d7a:	2000      	movs	r0, #0
 8005d7c:	f6c3 71f0 	movt	r1, #16368	; 0x3ff0
 8005d80:	f003 f954 	bl	800902c <__aeabi_dsub>
 8005d84:	4602      	mov	r2, r0
 8005d86:	460b      	mov	r3, r1
 8005d88:	4650      	mov	r0, sl
 8005d8a:	4659      	mov	r1, fp
 8005d8c:	f003 fd92 	bl	80098b4 <__aeabi_dcmpgt>
 8005d90:	f8dd c008 	ldr.w	ip, [sp, #8]
 8005d94:	2800      	cmp	r0, #0
 8005d96:	f040 8314 	bne.w	80063c2 <_dtoa_r+0xe2e>
 8005d9a:	f1bc 0f01 	cmp.w	ip, #1
 8005d9e:	f340 80f5 	ble.w	8005f8c <_dtoa_r+0x9f8>
 8005da2:	f8dd 9020 	ldr.w	r9, [sp, #32]
 8005da6:	9417      	str	r4, [sp, #92]	; 0x5c
 8005da8:	44e1      	add	r9, ip
 8005daa:	f8cd 9040 	str.w	r9, [sp, #64]	; 0x40
 8005dae:	46a9      	mov	r9, r5
 8005db0:	e010      	b.n	8005dd4 <_dtoa_r+0x840>
 8005db2:	2100      	movs	r1, #0
 8005db4:	2000      	movs	r0, #0
 8005db6:	f6c3 71f0 	movt	r1, #16368	; 0x3ff0
 8005dba:	f003 f937 	bl	800902c <__aeabi_dsub>
 8005dbe:	4652      	mov	r2, sl
 8005dc0:	465b      	mov	r3, fp
